(lp1
(lp2
ccopy_reg
_reconstructor
p3
(cSomyeol
EvilSomyeol
p4
c__builtin__
object
p5
NtRp6
(dp7
S'hasKey'
p8
I00
sS'animationCnt'
p9
I10
sS'yspeed'
p10
I0
sS'nonstopJump'
p11
I01
sS'xspeed'
p12
I0
sS'canJump'
p13
I00
sS'currentFile'
p14
I0
sS'breathFactor'
p15
I1
sS'dead'
p16
I00
sS'height'
p17
I64
sS'width'
p18
I32
sS'points'
p19
I-100
sS'jumpSpeed'
p20
F10.25
sS'breathIn'
p21
I01
sS'filenames'
p22
(lp23
S'img/Somyeols/EvilSomyeol_small_0.png'
p24
aS'img/Somyeols/EvilSomyeol_small_1.png'
p25
asS'y'
I414
sS'x'
I64
sS'moveSpeed'
p26
F0.20000000000000001
sS'filename'
p27
g24
sS'inverted'
p28
I00
sbag3
(g4
g5
NtRp29
(dp30
g8
I00
sg9
I10
sg10
I0
sg11
I01
sg12
I0
sg13
I00
sg14
I0
sg15
I1
sg16
I00
sg17
I64
sg18
I32
sg19
I-100
sg20
F10.25
sg21
I01
sg22
(lp31
S'img/Somyeols/EvilSomyeol_small_0.png'
p32
aS'img/Somyeols/EvilSomyeol_small_1.png'
p33
asS'y'
I414
sS'x'
I96
sg26
F0.20000000000000001
sg27
g32
sg28
I00
sbag3
(g4
g5
NtRp34
(dp35
g8
I00
sg9
I10
sg10
I0
sg11
I01
sg12
I0
sg13
I00
sg14
I0
sg15
I1
sg16
I00
sg17
I64
sg18
I32
sg19
I-100
sg20
F10.25
sg21
I01
sg22
(lp36
S'img/Somyeols/EvilSomyeol_small_0.png'
p37
aS'img/Somyeols/EvilSomyeol_small_1.png'
p38
asS'y'
I414
sS'x'
I128
sg26
F0.20000000000000001
sg27
g37
sg28
I00
sbag3
(g4
g5
NtRp39
(dp40
g8
I00
sg9
I10
sg10
I0
sg11
I01
sg12
I0
sg13
I00
sg14
I0
sg15
I1
sg16
I00
sg17
I64
sg18
I32
sg19
I-100
sg20
F10.25
sg21
I01
sg22
(lp41
S'img/Somyeols/EvilSomyeol_small_0.png'
p42
aS'img/Somyeols/EvilSomyeol_small_1.png'
p43
asS'y'
I414
sS'x'
I160
sg26
F0.20000000000000001
sg27
g42
sg28
I00
sbag3
(g4
g5
NtRp44
(dp45
g8
I00
sg9
I10
sg10
I0
sg11
I01
sg12
I0
sg13
I00
sg14
I0
sg15
I1
sg16
I00
sg17
I64
sg18
I32
sg19
I-100
sg20
F10.25
sg21
I01
sg22
(lp46
S'img/Somyeols/EvilSomyeol_small_0.png'
p47
aS'img/Somyeols/EvilSomyeol_small_1.png'
p48
asS'y'
I414
sS'x'
I192
sg26
F0.20000000000000001
sg27
g47
sg28
I00
sbag3
(g4
g5
NtRp49
(dp50
g8
I00
sg9
I10
sg10
I0
sg11
I01
sg12
I0
sg13
I00
sg14
I0
sg15
I1
sg16
I00
sg17
I64
sg18
I32
sg19
I-100
sg20
F10.25
sg21
I01
sg22
(lp51
S'img/Somyeols/EvilSomyeol_small_0.png'
p52
aS'img/Somyeols/EvilSomyeol_small_1.png'
p53
asS'y'
I414
sS'x'
I256
sg26
F0.20000000000000001
sg27
g52
sg28
I00
sbag3
(g4
g5
NtRp54
(dp55
g8
I00
sg9
I10
sg10
I0
sg11
I01
sg12
I0
sg13
I00
sg14
I0
sg15
I1
sg16
I00
sg17
I64
sg18
I32
sg19
I-100
sg20
F10.25
sg21
I01
sg22
(lp56
S'img/Somyeols/EvilSomyeol_small_0.png'
p57
aS'img/Somyeols/EvilSomyeol_small_1.png'
p58
asS'y'
I414
sS'x'
I224
sg26
F0.20000000000000001
sg27
g57
sg28
I00
sbag3
(g4
g5
NtRp59
(dp60
g8
I00
sg9
I10
sg10
I0
sg11
I01
sg12
I0
sg13
I00
sg14
I0
sg15
I1
sg16
I00
sg17
I64
sg18
I32
sg19
I-100
sg20
F10.25
sg21
I01
sg22
(lp61
S'img/Somyeols/EvilSomyeol_small_0.png'
p62
aS'img/Somyeols/EvilSomyeol_small_1.png'
p63
asS'y'
I414
sS'x'
I320
sg26
F0.20000000000000001
sg27
g62
sg28
I00
sbag3
(g4
g5
NtRp64
(dp65
g8
I00
sg9
I10
sg10
I0
sg11
I01
sg12
I0
sg13
I00
sg14
I0
sg15
I1
sg16
I00
sg17
I64
sg18
I32
sg19
I-100
sg20
F10.25
sg21
I01
sg22
(lp66
S'img/Somyeols/EvilSomyeol_small_0.png'
p67
aS'img/Somyeols/EvilSomyeol_small_1.png'
p68
asS'y'
I414
sS'x'
I320
sg26
F0.20000000000000001
sg27
g67
sg28
I00
sbag3
(g4
g5
NtRp69
(dp70
g8
I00
sg9
I10
sg10
I0
sg11
I01
sg12
I0
sg13
I00
sg14
I0
sg15
I1
sg16
I00
sg17
I64
sg18
I32
sg19
I-100
sg20
F10.25
sg21
I01
sg22
(lp71
S'img/Somyeols/EvilSomyeol_small_0.png'
p72
aS'img/Somyeols/EvilSomyeol_small_1.png'
p73
asS'y'
I414
sS'x'
I288
sg26
F0.20000000000000001
sg27
g72
sg28
I00
sbag3
(cSomyeol
InvertedSomyeol
p74
g5
NtRp75
(dp76
g8
I00
sg9
I10
sg10
I0
sg11
I01
sg12
I0
sg13
I00
sg14
I0
sg15
I1
sg16
I00
sg17
I64
sg18
I32
sg19
I15
sg20
F10.25
sg21
I01
sg22
(lp77
S'img/Somyeols/InvertedSomyeol_stand_0.png'
p78
aS'img/Somyeols/InvertedSomyeol_stand_1.png'
p79
asS'y'
I414
sS'x'
I-64
sg26
F0.20000000000000001
sg27
g78
sg28
I01
sbag3
(cSomyeol
Somyeol
p80
g5
NtRp81
(dp82
g8
I00
sg9
I10
sg10
I0
sg11
I01
sg12
I0
sg13
I00
sg14
I0
sg15
I1
sg16
I00
sg17
I64
sg18
I32
sg19
I10
sg20
F10.25
sg21
I01
sg22
(lp83
S'img/Somyeols/Somyeol_stand_0.png'
p84
aS'img/Somyeols/Somyeol_stand_1.png'
p85
asS'y'
I414
sS'x'
I-32
sg26
F0.20000000000000001
sg27
g84
sg28
I00
sbag3
(g4
g5
NtRp86
(dp87
g8
I00
sg9
I10
sg10
I0
sg11
I01
sg12
I0
sg13
I00
sg14
I0
sg15
I1
sg16
I00
sg17
I64
sg18
I32
sg19
I-100
sg20
F10.25
sg21
I01
sg22
(lp88
S'img/Somyeols/EvilSomyeol_small_0.png'
p89
aS'img/Somyeols/EvilSomyeol_small_1.png'
p90
asS'y'
I414
sS'x'
I0
sg26
F0.20000000000000001
sg27
g89
sg28
I00
sbag3
(g4
g5
NtRp91
(dp92
g8
I00
sg9
I10
sg10
I0
sg11
I01
sg12
I0
sg13
I00
sg14
I0
sg15
I1
sg16
I00
sg17
I64
sg18
I32
sg19
I-100
sg20
F10.25
sg21
I01
sg22
(lp93
S'img/Somyeols/EvilSomyeol_small_0.png'
p94
aS'img/Somyeols/EvilSomyeol_small_1.png'
p95
asS'y'
I414
sS'x'
I32
sg26
F0.20000000000000001
sg27
g94
sg28
I00
sbag3
(g4
g5
NtRp96
(dp97
g8
I00
sg9
I10
sg10
I0
sg11
I01
sg12
I0
sg13
I00
sg14
I0
sg15
I1
sg16
I00
sg17
I64
sg18
I32
sg19
I-100
sg20
F10.25
sg21
I01
sg22
(lp98
S'img/Somyeols/EvilSomyeol_small_0.png'
p99
aS'img/Somyeols/EvilSomyeol_small_1.png'
p100
asS'y'
I414
sS'x'
I352
sg26
F0.20000000000000001
sg27
g99
sg28
I00
sbag3
(g4
g5
NtRp101
(dp102
g8
I00
sg9
I10
sg10
I0
sg11
I01
sg12
I0
sg13
I00
sg14
I0
sg15
I1
sg16
I00
sg17
I64
sg18
I32
sg19
I-100
sg20
F10.25
sg21
I01
sg22
(lp103
S'img/Somyeols/EvilSomyeol_small_0.png'
p104
aS'img/Somyeols/EvilSomyeol_small_1.png'
p105
asS'y'
I414
sS'x'
I384
sg26
F0.20000000000000001
sg27
g104
sg28
I00
sbag3
(g4
g5
NtRp106
(dp107
g8
I00
sg9
I10
sg10
I0
sg11
I01
sg12
I0
sg13
I00
sg14
I0
sg15
I1
sg16
I00
sg17
I64
sg18
I32
sg19
I-100
sg20
F10.25
sg21
I01
sg22
(lp108
S'img/Somyeols/EvilSomyeol_small_0.png'
p109
aS'img/Somyeols/EvilSomyeol_small_1.png'
p110
asS'y'
I414
sS'x'
I416
sg26
F0.20000000000000001
sg27
g109
sg28
I00
sbag3
(g4
g5
NtRp111
(dp112
g8
I00
sg9
I10
sg10
I0
sg11
I01
sg12
I0
sg13
I00
sg14
I0
sg15
I1
sg16
I00
sg17
I64
sg18
I32
sg19
I-100
sg20
F10.25
sg21
I01
sg22
(lp113
S'img/Somyeols/EvilSomyeol_small_0.png'
p114
aS'img/Somyeols/EvilSomyeol_small_1.png'
p115
asS'y'
I414
sS'x'
I448
sg26
F0.20000000000000001
sg27
g114
sg28
I00
sbag3
(g4
g5
NtRp116
(dp117
g8
I00
sg9
I10
sg10
I0
sg11
I01
sg12
I0
sg13
I00
sg14
I0
sg15
I1
sg16
I00
sg17
I64
sg18
I32
sg19
I-100
sg20
F10.25
sg21
I01
sg22
(lp118
S'img/Somyeols/EvilSomyeol_small_0.png'
p119
aS'img/Somyeols/EvilSomyeol_small_1.png'
p120
asS'y'
I414
sS'x'
I480
sg26
F0.20000000000000001
sg27
g119
sg28
I00
sbag3
(g4
g5
NtRp121
(dp122
g8
I00
sg9
I10
sg10
I0
sg11
I01
sg12
I0
sg13
I00
sg14
I0
sg15
I1
sg16
I00
sg17
I64
sg18
I32
sg19
I-100
sg20
F10.25
sg21
I01
sg22
(lp123
S'img/Somyeols/EvilSomyeol_small_0.png'
p124
aS'img/Somyeols/EvilSomyeol_small_1.png'
p125
asS'y'
I414
sS'x'
I512
sg26
F0.20000000000000001
sg27
g124
sg28
I00
sbag3
(g4
g5
NtRp126
(dp127
g8
I00
sg9
I10
sg10
I0
sg11
I01
sg12
I0
sg13
I00
sg14
I0
sg15
I1
sg16
I00
sg17
I64
sg18
I32
sg19
I-100
sg20
F10.25
sg21
I01
sg22
(lp128
S'img/Somyeols/EvilSomyeol_small_0.png'
p129
aS'img/Somyeols/EvilSomyeol_small_1.png'
p130
asS'y'
I414
sS'x'
I544
sg26
F0.20000000000000001
sg27
g129
sg28
I00
sbaa(lp131
g3
(cGameObjects
Firetrap
p132
g5
NtRp133
(dp134
S'y'
I368
sS'x'
I64
sS'particles'
p135
(lp136
sS'active'
p137
I01
sS'countdown'
p138
I100
sbag3
(g132
g5
NtRp139
(dp140
S'y'
I368
sS'x'
I96
sg135
(lp141
sg137
I01
sg138
I100
sbag3
(g132
g5
NtRp142
(dp143
S'y'
I368
sS'x'
I128
sg135
(lp144
sg137
I01
sg138
I100
sbag3
(g132
g5
NtRp145
(dp146
S'y'
I368
sS'x'
I160
sg135
(lp147
sg137
I01
sg138
I100
sbag3
(g132
g5
NtRp148
(dp149
S'y'
I368
sS'x'
I192
sg135
(lp150
sg137
I01
sg138
I100
sbag3
(g132
g5
NtRp151
(dp152
S'y'
I368
sS'x'
I512
sg135
(lp153
sg137
I01
sg138
I100
sbag3
(g132
g5
NtRp154
(dp155
S'y'
I368
sS'x'
I544
sg135
(lp156
sg137
I01
sg138
I100
sbag3
(g132
g5
NtRp157
(dp158
S'y'
I368
sS'x'
I448
sg135
(lp159
sg137
I01
sg138
I100
sbag3
(g132
g5
NtRp160
(dp161
S'y'
I368
sS'x'
I480
sg135
(lp162
sg137
I01
sg138
I100
sbag3
(cGameObjects
Box
p163
g5
NtRp164
(dp165
g10
I0
sg12
I0
sg17
I32
sg18
I608
sS'y'
I480
sS'x'
I32
sbag3
(cGameObjects
Goal
p166
g5
NtRp167
(dp168
S'y'
I352
sS'x'
I640
sg17
I160
sS'img'
p169
S'img/World/goal.png'
p170
sg18
I160
sbag3
(cGameObjects
Spawner
p171
g5
NtRp172
(dp173
g169
S'img/World/spawner_2.png'
p174
sg17
I100
sg18
I100
sS'y'
I256
sS'x'
I800
sS'spawns'
p175
I01
sS'quantity'
p176
I25
sbag3
(g163
g5
NtRp177
(dp178
g10
I0
sg12
I0
sg17
I32
sg18
I96
sS'y'
I480
sS'x'
I-64
sbaa(lp179
a.