(lp1
(lp2
ccopy_reg
_reconstructor
p3
(cSomyeol
Somyeol
p4
c__builtin__
object
p5
NtRp6
(dp7
S'hasKey'
p8
I00
sS'animationCnt'
p9
I10
sS'yspeed'
p10
I0
sS'nonstopJump'
p11
I01
sS'xspeed'
p12
I0
sS'canJump'
p13
I00
sS'currentFile'
p14
I0
sS'breathFactor'
p15
I1
sS'dead'
p16
I00
sS'filename'
p17
S'img/Somyeols/Somyeol_stand_0.png'
p18
sS'width'
p19
I32
sS'points'
p20
I10
sS'jumpSpeed'
p21
F10.25
sS'breathIn'
p22
I01
sS'filenames'
p23
(lp24
g18
aS'img/Somyeols/Somyeol_stand_1.png'
p25
asS'y'
I382
sS'x'
I585
sS'moveSpeed'
p26
F0.20000000000000001
sS'height'
p27
I64
sS'inverted'
p28
I00
sbag3
(g4
g5
NtRp29
(dp30
g8
I00
sg9
I10
sg10
I0
sg11
I01
sg12
I0
sg13
I00
sg14
I0
sg15
I1
sg16
I00
sg17
S'img/Somyeols/Somyeol_stand_0.png'
p31
sg19
I32
sg20
I10
sg21
F10.25
sg22
I01
sg23
(lp32
g31
aS'img/Somyeols/Somyeol_stand_1.png'
p33
asS'y'
I384
sS'x'
I583
sg26
F0.20000000000000001
sg27
I64
sg28
I00
sbag3
(g4
g5
NtRp34
(dp35
g8
I00
sg9
I10
sg10
I0
sg11
I01
sg12
I0
sg13
I00
sg14
I0
sg15
I1
sg16
I00
sg17
S'img/Somyeols/Somyeol_stand_0.png'
p36
sg19
I32
sg20
I10
sg21
F10.25
sg22
I01
sg23
(lp37
g36
aS'img/Somyeols/Somyeol_stand_1.png'
p38
asS'y'
I390
sS'x'
I572
sg26
F0.20000000000000001
sg27
I64
sg28
I00
sbag3
(g4
g5
NtRp39
(dp40
g8
I00
sg9
I10
sg10
I0
sg11
I01
sg12
I0
sg13
I00
sg14
I0
sg15
I1
sg16
I00
sg17
S'img/Somyeols/Somyeol_stand_0.png'
p41
sg19
I32
sg20
I10
sg21
F10.25
sg22
I01
sg23
(lp42
g41
aS'img/Somyeols/Somyeol_stand_1.png'
p43
asS'y'
I386
sS'x'
I583
sg26
F0.20000000000000001
sg27
I64
sg28
I00
sbag3
(g4
g5
NtRp44
(dp45
g8
I00
sg9
I10
sg10
I0
sg11
I01
sg12
I0
sg13
I00
sg14
I0
sg15
I1
sg16
I00
sg17
S'img/Somyeols/Somyeol_stand_0.png'
p46
sg19
I32
sg20
I10
sg21
F10.25
sg22
I01
sg23
(lp47
g46
aS'img/Somyeols/Somyeol_stand_1.png'
p48
asS'y'
I377
sS'x'
I571
sg26
F0.20000000000000001
sg27
I64
sg28
I00
sbag3
(g4
g5
NtRp49
(dp50
g8
I00
sg9
I10
sg10
I0
sg11
I01
sg12
I0
sg13
I00
sg14
I0
sg15
I1
sg16
I00
sg17
S'img/Somyeols/Somyeol_stand_0.png'
p51
sg19
I32
sg20
I10
sg21
F10.25
sg22
I01
sg23
(lp52
g51
aS'img/Somyeols/Somyeol_stand_1.png'
p53
asS'y'
I381
sS'x'
I579
sg26
F0.20000000000000001
sg27
I64
sg28
I00
sbag3
(g4
g5
NtRp54
(dp55
g8
I00
sg9
I10
sg10
I0
sg11
I01
sg12
I0
sg13
I00
sg14
I0
sg15
I1
sg16
I00
sg17
S'img/Somyeols/Somyeol_stand_0.png'
p56
sg19
I32
sg20
I10
sg21
F10.25
sg22
I01
sg23
(lp57
g56
aS'img/Somyeols/Somyeol_stand_1.png'
p58
asS'y'
I389
sS'x'
I567
sg26
F0.20000000000000001
sg27
I64
sg28
I00
sbag3
(g4
g5
NtRp59
(dp60
g8
I00
sg9
I10
sg10
I0
sg11
I01
sg12
I0
sg13
I00
sg14
I0
sg15
I1
sg16
I00
sg17
S'img/Somyeols/Somyeol_stand_0.png'
p61
sg19
I32
sg20
I10
sg21
F10.25
sg22
I01
sg23
(lp62
g61
aS'img/Somyeols/Somyeol_stand_1.png'
p63
asS'y'
I379
sS'x'
I580
sg26
F0.20000000000000001
sg27
I64
sg28
I00
sbag3
(g4
g5
NtRp64
(dp65
g8
I00
sg9
I10
sg10
I0
sg11
I01
sg12
I0
sg13
I00
sg14
I0
sg15
I1
sg16
I00
sg17
S'img/Somyeols/Somyeol_stand_0.png'
p66
sg19
I32
sg20
I10
sg21
F10.25
sg22
I01
sg23
(lp67
g66
aS'img/Somyeols/Somyeol_stand_1.png'
p68
asS'y'
I392
sS'x'
I581
sg26
F0.20000000000000001
sg27
I64
sg28
I00
sbag3
(g4
g5
NtRp69
(dp70
g8
I00
sg9
I10
sg10
I0
sg11
I01
sg12
I0
sg13
I00
sg14
I0
sg15
I1
sg16
I00
sg17
S'img/Somyeols/Somyeol_stand_0.png'
p71
sg19
I32
sg20
I10
sg21
F10.25
sg22
I01
sg23
(lp72
g71
aS'img/Somyeols/Somyeol_stand_1.png'
p73
asS'y'
I391
sS'x'
I571
sg26
F0.20000000000000001
sg27
I64
sg28
I00
sbag3
(g4
g5
NtRp74
(dp75
g8
I00
sg9
I10
sg10
I0
sg11
I01
sg12
I0
sg13
I00
sg14
I0
sg15
I1
sg16
I00
sg17
S'img/Somyeols/Somyeol_stand_0.png'
p76
sg19
I32
sg20
I10
sg21
F10.25
sg22
I01
sg23
(lp77
g76
aS'img/Somyeols/Somyeol_stand_1.png'
p78
asS'y'
I389
sS'x'
I542
sg26
F0.20000000000000001
sg27
I64
sg28
I00
sbag3
(g4
g5
NtRp79
(dp80
g8
I00
sg9
I10
sg10
I0
sg11
I01
sg12
I0
sg13
I00
sg14
I0
sg15
I1
sg16
I00
sg17
S'img/Somyeols/Somyeol_stand_0.png'
p81
sg19
I32
sg20
I10
sg21
F10.25
sg22
I01
sg23
(lp82
g81
aS'img/Somyeols/Somyeol_stand_1.png'
p83
asS'y'
I377
sS'x'
I541
sg26
F0.20000000000000001
sg27
I64
sg28
I00
sbag3
(g4
g5
NtRp84
(dp85
g8
I00
sg9
I10
sg10
I0
sg11
I01
sg12
I0
sg13
I00
sg14
I0
sg15
I1
sg16
I00
sg17
S'img/Somyeols/Somyeol_stand_0.png'
p86
sg19
I32
sg20
I10
sg21
F10.25
sg22
I01
sg23
(lp87
g86
aS'img/Somyeols/Somyeol_stand_1.png'
p88
asS'y'
I392
sS'x'
I534
sg26
F0.20000000000000001
sg27
I64
sg28
I00
sbag3
(g4
g5
NtRp89
(dp90
g8
I00
sg9
I10
sg10
I0
sg11
I01
sg12
I0
sg13
I00
sg14
I0
sg15
I1
sg16
I00
sg17
S'img/Somyeols/Somyeol_stand_0.png'
p91
sg19
I32
sg20
I10
sg21
F10.25
sg22
I01
sg23
(lp92
g91
aS'img/Somyeols/Somyeol_stand_1.png'
p93
asS'y'
I386
sS'x'
I538
sg26
F0.20000000000000001
sg27
I64
sg28
I00
sbag3
(g4
g5
NtRp94
(dp95
g8
I00
sg9
I10
sg10
I0
sg11
I01
sg12
I0
sg13
I00
sg14
I0
sg15
I1
sg16
I00
sg17
S'img/Somyeols/Somyeol_stand_0.png'
p96
sg19
I32
sg20
I10
sg21
F10.25
sg22
I01
sg23
(lp97
g96
aS'img/Somyeols/Somyeol_stand_1.png'
p98
asS'y'
I391
sS'x'
I549
sg26
F0.20000000000000001
sg27
I64
sg28
I00
sbag3
(g4
g5
NtRp99
(dp100
g8
I00
sg9
I10
sg10
I0
sg11
I01
sg12
I0
sg13
I00
sg14
I0
sg15
I1
sg16
I00
sg17
S'img/Somyeols/Somyeol_stand_0.png'
p101
sg19
I32
sg20
I10
sg21
F10.25
sg22
I01
sg23
(lp102
g101
aS'img/Somyeols/Somyeol_stand_1.png'
p103
asS'y'
I388
sS'x'
I536
sg26
F0.20000000000000001
sg27
I64
sg28
I00
sbag3
(g4
g5
NtRp104
(dp105
g8
I00
sg9
I10
sg10
I0
sg11
I01
sg12
I0
sg13
I00
sg14
I0
sg15
I1
sg16
I00
sg17
S'img/Somyeols/Somyeol_stand_0.png'
p106
sg19
I32
sg20
I10
sg21
F10.25
sg22
I01
sg23
(lp107
g106
aS'img/Somyeols/Somyeol_stand_1.png'
p108
asS'y'
I377
sS'x'
I552
sg26
F0.20000000000000001
sg27
I64
sg28
I00
sbag3
(g4
g5
NtRp109
(dp110
g8
I00
sg9
I10
sg10
I0
sg11
I01
sg12
I0
sg13
I00
sg14
I0
sg15
I1
sg16
I00
sg17
S'img/Somyeols/Somyeol_stand_0.png'
p111
sg19
I32
sg20
I10
sg21
F10.25
sg22
I01
sg23
(lp112
g111
aS'img/Somyeols/Somyeol_stand_1.png'
p113
asS'y'
I389
sS'x'
I549
sg26
F0.20000000000000001
sg27
I64
sg28
I00
sbag3
(g4
g5
NtRp114
(dp115
g8
I00
sg9
I10
sg10
I0
sg11
I01
sg12
I0
sg13
I00
sg14
I0
sg15
I1
sg16
I00
sg17
S'img/Somyeols/Somyeol_stand_0.png'
p116
sg19
I32
sg20
I10
sg21
F10.25
sg22
I01
sg23
(lp117
g116
aS'img/Somyeols/Somyeol_stand_1.png'
p118
asS'y'
I385
sS'x'
I550
sg26
F0.20000000000000001
sg27
I64
sg28
I00
sbag3
(g4
g5
NtRp119
(dp120
g8
I00
sg9
I10
sg10
I0
sg11
I01
sg12
I0
sg13
I00
sg14
I0
sg15
I1
sg16
I00
sg17
S'img/Somyeols/Somyeol_stand_0.png'
p121
sg19
I32
sg20
I10
sg21
F10.25
sg22
I01
sg23
(lp122
g121
aS'img/Somyeols/Somyeol_stand_1.png'
p123
asS'y'
I389
sS'x'
I551
sg26
F0.20000000000000001
sg27
I64
sg28
I00
sbaa(lp124
g3
(cGameObjects
Box
p125
g5
NtRp126
(dp127
g10
I0
sg12
I0
sg27
I896
sg19
I32
sS'y'
I-416
sS'x'
I384
sbag3
(g125
g5
NtRp128
(dp129
g10
I0
sg12
I0
sg27
I32
sg19
I128
sS'y'
I288
sS'x'
I416
sbag3
(g125
g5
NtRp130
(dp131
g10
I0
sg12
I0
sg27
I32
sg19
I128
sS'y'
I128
sS'x'
I512
sbag3
(g125
g5
NtRp132
(dp133
g10
I0
sg12
I0
sg27
I32
sg19
I96
sS'y'
I-32
sS'x'
I416
sbag3
(g125
g5
NtRp134
(dp135
g10
I0
sg12
I0
sg27
I32
sg19
I96
sS'y'
I-192
sS'x'
I544
sbag3
(g125
g5
NtRp136
(dp137
g10
I0
sg12
I0
sg27
I32
sg19
I128
sS'y'
I-384
sS'x'
I416
sbag3
(g125
g5
NtRp138
(dp139
g10
I0
sg12
I0
sg27
I32
sg19
I192
sS'y'
I-416
sS'x'
I672
sbag3
(cGameObjects
Goal
p140
g5
NtRp141
(dp142
S'y'
I-576
sS'x'
I704
sg27
I160
sS'img'
p143
S'img/World/goal.png'
p144
sg19
I160
sbag3
(g125
g5
NtRp145
(dp146
g10
I0
sg12
I0
sg27
I32
sg19
I160
sS'y'
I480
sS'x'
I512
sbag3
(g125
g5
NtRp147
(dp148
g10
I0
sg12
I0
sg27
I896
sg19
I32
sS'y'
I-416
sS'x'
I640
sbaa(lp149
a.