(lp1
(lp2
ccopy_reg
_reconstructor
p3
(cSomyeol
FatSomyeol
p4
c__builtin__
object
p5
NtRp6
(dp7
S'hasKey'
p8
I00
sS'animationCnt'
p9
I10
sS'yspeed'
p10
I0
sS'nonstopJump'
p11
I01
sS'xspeed'
p12
I0
sS'canJump'
p13
I00
sS'currentFile'
p14
I0
sS'breathFactor'
p15
I1
sS'dead'
p16
I00
sS'height'
p17
I64
sS'width'
p18
I32
sS'points'
p19
I50
sS'jumpSpeed'
p20
I6
sS'breathIn'
p21
I01
sS'filenames'
p22
(lp23
S'img/Somyeols/FatSomyeol_small_0.png'
p24
aS'img/Somyeols/FatSomyeol_small_1.png'
p25
asS'y'
I158
sS'x'
I640
sS'moveSpeed'
p26
F0.10000000000000001
sS'filename'
p27
g24
sS'inverted'
p28
I00
sbag3
(cSomyeol
CrippleSomyeol
p29
g5
NtRp30
(dp31
S'hasKey'
p32
I00
sS'animationCnt'
p33
I10
sS'yspeed'
p34
I0
sS'nonstopJump'
p35
I01
sS'xspeed'
p36
I0
sS'canJump'
p37
I00
sS'currentFile'
p38
I0
sS'breathFactor'
p39
I1
sS'dead'
p40
I00
sS'filename'
p41
S'img/Somyeols/CrippleSomyeol_small_0.png'
p42
sS'width'
p43
I32
sS'points'
p44
I25
sS'jumpSpeed'
p45
F10.25
sS'breathIn'
p46
I01
sS'filenames'
p47
(lp48
g42
aS'img/Somyeols/CrippleSomyeol_small_1.png'
p49
asS'y'
I158
sS'x'
I320
sS'moveSpeed'
p50
F0.20000000000000001
sS'height'
p51
I64
sS'inverted'
p52
I00
sbag3
(g29
g5
NtRp53
(dp54
g32
I00
sg33
I10
sg34
I0
sg35
I01
sg36
I0
sg37
I00
sg38
I0
sg39
I1
sg40
I00
sg41
S'img/Somyeols/CrippleSomyeol_small_0.png'
p55
sg43
I32
sg44
I25
sg45
F10.25
sg46
I01
sg47
(lp56
g55
aS'img/Somyeols/CrippleSomyeol_small_1.png'
p57
asS'y'
I158
sS'x'
I352
sg50
F0.20000000000000001
sg51
I64
sg52
I00
sbag3
(g29
g5
NtRp58
(dp59
g32
I00
sg33
I10
sg34
I0
sg35
I01
sg36
I0
sg37
I00
sg38
I0
sg39
I1
sg40
I00
sg41
S'img/Somyeols/CrippleSomyeol_small_0.png'
p60
sg43
I32
sg44
I25
sg45
F10.25
sg46
I01
sg47
(lp61
g60
aS'img/Somyeols/CrippleSomyeol_small_1.png'
p62
asS'y'
I158
sS'x'
I384
sg50
F0.20000000000000001
sg51
I64
sg52
I00
sbag3
(g29
g5
NtRp63
(dp64
g32
I00
sg33
I10
sg34
I0
sg35
I01
sg36
I0
sg37
I00
sg38
I0
sg39
I1
sg40
I00
sg41
S'img/Somyeols/CrippleSomyeol_small_0.png'
p65
sg43
I32
sg44
I25
sg45
F10.25
sg46
I01
sg47
(lp66
g65
aS'img/Somyeols/CrippleSomyeol_small_1.png'
p67
asS'y'
I158
sS'x'
I256
sg50
F0.20000000000000001
sg51
I64
sg52
I00
sbag3
(g29
g5
NtRp68
(dp69
g32
I00
sg33
I10
sg34
I0
sg35
I01
sg36
I0
sg37
I00
sg38
I0
sg39
I1
sg40
I00
sg41
S'img/Somyeols/CrippleSomyeol_small_0.png'
p70
sg43
I32
sg44
I25
sg45
F10.25
sg46
I01
sg47
(lp71
g70
aS'img/Somyeols/CrippleSomyeol_small_1.png'
p72
asS'y'
I158
sS'x'
I256
sg50
F0.20000000000000001
sg51
I64
sg52
I00
sbag3
(g29
g5
NtRp73
(dp74
g32
I00
sg33
I10
sg34
I0
sg35
I01
sg36
I0
sg37
I00
sg38
I0
sg39
I1
sg40
I00
sg41
S'img/Somyeols/CrippleSomyeol_small_0.png'
p75
sg43
I32
sg44
I25
sg45
F10.25
sg46
I01
sg47
(lp76
g75
aS'img/Somyeols/CrippleSomyeol_small_1.png'
p77
asS'y'
I158
sS'x'
I256
sg50
F0.20000000000000001
sg51
I64
sg52
I00
sbag3
(g29
g5
NtRp78
(dp79
g32
I00
sg33
I10
sg34
I0
sg35
I01
sg36
I0
sg37
I00
sg38
I0
sg39
I1
sg40
I00
sg41
S'img/Somyeols/CrippleSomyeol_small_0.png'
p80
sg43
I32
sg44
I25
sg45
F10.25
sg46
I01
sg47
(lp81
g80
aS'img/Somyeols/CrippleSomyeol_small_1.png'
p82
asS'y'
I158
sS'x'
I288
sg50
F0.20000000000000001
sg51
I64
sg52
I00
sbag3
(g29
g5
NtRp83
(dp84
g32
I00
sg33
I10
sg34
I0
sg35
I01
sg36
I0
sg37
I00
sg38
I0
sg39
I1
sg40
I00
sg41
S'img/Somyeols/CrippleSomyeol_small_0.png'
p85
sg43
I32
sg44
I25
sg45
F10.25
sg46
I01
sg47
(lp86
g85
aS'img/Somyeols/CrippleSomyeol_small_1.png'
p87
asS'y'
I158
sS'x'
I288
sg50
F0.20000000000000001
sg51
I64
sg52
I00
sbag3
(g29
g5
NtRp88
(dp89
g32
I00
sg33
I10
sg34
I0
sg35
I01
sg36
I0
sg37
I00
sg38
I0
sg39
I1
sg40
I00
sg41
S'img/Somyeols/CrippleSomyeol_small_0.png'
p90
sg43
I32
sg44
I25
sg45
F10.25
sg46
I01
sg47
(lp91
g90
aS'img/Somyeols/CrippleSomyeol_small_1.png'
p92
asS'y'
I158
sS'x'
I288
sg50
F0.20000000000000001
sg51
I64
sg52
I00
sbag3
(g29
g5
NtRp93
(dp94
g32
I00
sg33
I10
sg34
I0
sg35
I01
sg36
I0
sg37
I00
sg38
I0
sg39
I1
sg40
I00
sg41
S'img/Somyeols/CrippleSomyeol_small_0.png'
p95
sg43
I32
sg44
I25
sg45
F10.25
sg46
I01
sg47
(lp96
g95
aS'img/Somyeols/CrippleSomyeol_small_1.png'
p97
asS'y'
I158
sS'x'
I320
sg50
F0.20000000000000001
sg51
I64
sg52
I00
sbag3
(g29
g5
NtRp98
(dp99
g32
I00
sg33
I10
sg34
I0
sg35
I01
sg36
I0
sg37
I00
sg38
I0
sg39
I1
sg40
I00
sg41
S'img/Somyeols/CrippleSomyeol_small_0.png'
p100
sg43
I32
sg44
I25
sg45
F10.25
sg46
I01
sg47
(lp101
g100
aS'img/Somyeols/CrippleSomyeol_small_1.png'
p102
asS'y'
I158
sS'x'
I320
sg50
F0.20000000000000001
sg51
I64
sg52
I00
sbag3
(g29
g5
NtRp103
(dp104
g32
I00
sg33
I10
sg34
I0
sg35
I01
sg36
I0
sg37
I00
sg38
I0
sg39
I1
sg40
I00
sg41
S'img/Somyeols/CrippleSomyeol_small_0.png'
p105
sg43
I32
sg44
I25
sg45
F10.25
sg46
I01
sg47
(lp106
g105
aS'img/Somyeols/CrippleSomyeol_small_1.png'
p107
asS'y'
I158
sS'x'
I320
sg50
F0.20000000000000001
sg51
I64
sg52
I00
sbag3
(g29
g5
NtRp108
(dp109
g32
I00
sg33
I10
sg34
I0
sg35
I01
sg36
I0
sg37
I00
sg38
I0
sg39
I1
sg40
I00
sg41
S'img/Somyeols/CrippleSomyeol_small_0.png'
p110
sg43
I32
sg44
I25
sg45
F10.25
sg46
I01
sg47
(lp111
g110
aS'img/Somyeols/CrippleSomyeol_small_1.png'
p112
asS'y'
I158
sS'x'
I352
sg50
F0.20000000000000001
sg51
I64
sg52
I00
sbag3
(g29
g5
NtRp113
(dp114
g32
I00
sg33
I10
sg34
I0
sg35
I01
sg36
I0
sg37
I00
sg38
I0
sg39
I1
sg40
I00
sg41
S'img/Somyeols/CrippleSomyeol_small_0.png'
p115
sg43
I32
sg44
I25
sg45
F10.25
sg46
I01
sg47
(lp116
g115
aS'img/Somyeols/CrippleSomyeol_small_1.png'
p117
asS'y'
I158
sS'x'
I352
sg50
F0.20000000000000001
sg51
I64
sg52
I00
sbag3
(g29
g5
NtRp118
(dp119
g32
I00
sg33
I10
sg34
I0
sg35
I01
sg36
I0
sg37
I00
sg38
I0
sg39
I1
sg40
I00
sg41
S'img/Somyeols/CrippleSomyeol_small_0.png'
p120
sg43
I32
sg44
I25
sg45
F10.25
sg46
I01
sg47
(lp121
g120
aS'img/Somyeols/CrippleSomyeol_small_1.png'
p122
asS'y'
I158
sS'x'
I384
sg50
F0.20000000000000001
sg51
I64
sg52
I00
sbag3
(g29
g5
NtRp123
(dp124
g32
I00
sg33
I10
sg34
I0
sg35
I01
sg36
I0
sg37
I00
sg38
I0
sg39
I1
sg40
I00
sg41
S'img/Somyeols/CrippleSomyeol_small_0.png'
p125
sg43
I32
sg44
I25
sg45
F10.25
sg46
I01
sg47
(lp126
g125
aS'img/Somyeols/CrippleSomyeol_small_1.png'
p127
asS'y'
I158
sS'x'
I384
sg50
F0.20000000000000001
sg51
I64
sg52
I00
sbaa(lp128
g3
(cGameObjects
Box
p129
g5
NtRp130
(dp131
g10
I0
sg12
I0
sg17
I32
sg18
I576
sS'y'
I224
sS'x'
I192
sbag3
(cGameObjects
Lock
p132
g5
NtRp133
(dp134
S'y'
I192
sS'x'
I192
sg17
I32
sS'img'
p135
S'img/World/lock.png'
p136
sg18
I32
sbag3
(g132
g5
NtRp137
(dp138
S'y'
I160
sS'x'
I192
sg17
I32
sg135
S'img/World/lock.png'
p139
sg18
I32
sbag3
(g132
g5
NtRp140
(dp141
S'y'
I128
sS'x'
I192
sg17
I32
sg135
S'img/World/lock.png'
p142
sg18
I32
sbag3
(g132
g5
NtRp143
(dp144
S'y'
I96
sS'x'
I192
sg17
I32
sg135
S'img/World/lock.png'
p145
sg18
I32
sbag3
(g132
g5
NtRp146
(dp147
S'y'
I64
sS'x'
I192
sg17
I32
sg135
S'img/World/lock.png'
p148
sg18
I32
sbag3
(g132
g5
NtRp149
(dp150
S'y'
I64
sS'x'
I224
sg17
I32
sg135
S'img/World/lock.png'
p151
sg18
I32
sbag3
(g132
g5
NtRp152
(dp153
S'y'
I64
sS'x'
I256
sg17
I32
sg135
S'img/World/lock.png'
p154
sg18
I32
sbag3
(g132
g5
NtRp155
(dp156
S'y'
I64
sS'x'
I320
sg17
I32
sg135
S'img/World/lock.png'
p157
sg18
I32
sbag3
(g132
g5
NtRp158
(dp159
S'y'
I64
sS'x'
I288
sg17
I32
sg135
S'img/World/lock.png'
p160
sg18
I32
sbag3
(g132
g5
NtRp161
(dp162
S'y'
I64
sS'x'
I352
sg17
I32
sg135
S'img/World/lock.png'
p163
sg18
I32
sbag3
(g132
g5
NtRp164
(dp165
S'y'
I64
sS'x'
I384
sg17
I32
sg135
S'img/World/lock.png'
p166
sg18
I32
sbag3
(g132
g5
NtRp167
(dp168
S'y'
I64
sS'x'
I416
sg17
I32
sg135
S'img/World/lock.png'
p169
sg18
I32
sbag3
(g132
g5
NtRp170
(dp171
S'y'
I64
sS'x'
I448
sg17
I32
sg135
S'img/World/lock.png'
p172
sg18
I32
sbag3
(g132
g5
NtRp173
(dp174
S'y'
I96
sS'x'
I448
sg17
I32
sg135
S'img/World/lock.png'
p175
sg18
I32
sbag3
(g132
g5
NtRp176
(dp177
S'y'
I128
sS'x'
I448
sg17
I32
sg135
S'img/World/lock.png'
p178
sg18
I32
sbag3
(g132
g5
NtRp179
(dp180
S'y'
I160
sS'x'
I448
sg17
I32
sg135
S'img/World/lock.png'
p181
sg18
I32
sbag3
(g132
g5
NtRp182
(dp183
S'y'
I192
sS'x'
I448
sg17
I32
sg135
S'img/World/lock.png'
p184
sg18
I32
sbag3
(g129
g5
NtRp185
(dp186
g10
I0
sg12
I0
sg17
I32
sg18
I768
sS'y'
I512
sS'x'
I224
sbag3
(cGameObjects
Key
p187
g5
NtRp188
(dp189
S'y'
I480
sS'x'
I224
sg17
I32
sg135
S'img/World/key.png'
p190
sg18
I32
sbag3
(g132
g5
NtRp191
(dp192
S'y'
I480
sS'x'
I960
sg17
I32
sg135
S'img/World/lock.png'
p193
sg18
I32
sbag3
(g132
g5
NtRp194
(dp195
S'y'
I448
sS'x'
I960
sg17
I32
sg135
S'img/World/lock.png'
p196
sg18
I32
sbag3
(g132
g5
NtRp197
(dp198
S'y'
I416
sS'x'
I960
sg17
I32
sg135
S'img/World/lock.png'
p199
sg18
I32
sbag3
(g132
g5
NtRp200
(dp201
S'y'
I384
sS'x'
I960
sg17
I32
sg135
S'img/World/lock.png'
p202
sg18
I32
sbag3
(g132
g5
NtRp203
(dp204
S'y'
I352
sS'x'
I960
sg17
I32
sg135
S'img/World/lock.png'
p205
sg18
I32
sbag3
(g132
g5
NtRp206
(dp207
S'y'
I288
sS'x'
I960
sg17
I32
sg135
S'img/World/lock.png'
p208
sg18
I32
sbag3
(g132
g5
NtRp209
(dp210
S'y'
I320
sS'x'
I960
sg17
I32
sg135
S'img/World/lock.png'
p211
sg18
I32
sbag3
(g132
g5
NtRp212
(dp213
S'y'
I512
sS'x'
I992
sg17
I32
sg135
S'img/World/lock.png'
p214
sg18
I32
sbag3
(g132
g5
NtRp215
(dp216
S'y'
I512
sS'x'
I1024
sg17
I32
sg135
S'img/World/lock.png'
p217
sg18
I32
sbag3
(g132
g5
NtRp218
(dp219
S'y'
I512
sS'x'
I1056
sg17
I32
sg135
S'img/World/lock.png'
p220
sg18
I32
sbag3
(g132
g5
NtRp221
(dp222
S'y'
I512
sS'x'
I1088
sg17
I32
sg135
S'img/World/lock.png'
p223
sg18
I32
sbag3
(g132
g5
NtRp224
(dp225
S'y'
I512
sS'x'
I1120
sg17
I32
sg135
S'img/World/lock.png'
p226
sg18
I32
sbag3
(g132
g5
NtRp227
(dp228
S'y'
I512
sS'x'
I1152
sg17
I32
sg135
S'img/World/lock.png'
p229
sg18
I32
sbag3
(g132
g5
NtRp230
(dp231
S'y'
I512
sS'x'
I1184
sg17
I32
sg135
S'img/World/lock.png'
p232
sg18
I32
sbag3
(g129
g5
NtRp233
(dp234
g10
I0
sg12
I0
sg17
I0
sg18
I32
sS'y'
I416
sS'x'
I832
sbag3
(g129
g5
NtRp235
(dp236
g10
I0
sg12
I0
sg17
I32
sg18
I32
sS'y'
I352
sS'x'
I800
sbag3
(g129
g5
NtRp237
(dp238
g10
I0
sg12
I0
sg17
I0
sg18
I0
sS'y'
I480
sS'x'
I192
sbag3
(g129
g5
NtRp239
(dp240
g10
I0
sg12
I0
sg17
I32
sg18
I32
sS'y'
I480
sS'x'
I192
sbag3
(g129
g5
NtRp241
(dp242
g10
I0
sg12
I0
sg17
I32
sg18
I32
sS'y'
I448
sS'x'
I160
sbag3
(g129
g5
NtRp243
(dp244
g10
I0
sg12
I0
sg17
I32
sg18
I32
sS'y'
I416
sS'x'
I128
sbag3
(g129
g5
NtRp245
(dp246
g10
I0
sg12
I0
sg17
I32
sg18
I32
sS'y'
I384
sS'x'
I96
sbag3
(g129
g5
NtRp247
(dp248
g10
I0
sg12
I0
sg17
I32
sg18
I32
sS'y'
I352
sS'x'
I64
sbag3
(g129
g5
NtRp249
(dp250
g10
I0
sg12
I0
sg17
I32
sg18
I32
sS'y'
I320
sS'x'
I64
sbag3
(g129
g5
NtRp251
(dp252
g10
I0
sg12
I0
sg17
I32
sg18
I32
sS'y'
I288
sS'x'
I32
sbag3
(g129
g5
NtRp253
(dp254
g10
I0
sg12
I0
sg17
I32
sg18
I32
sS'y'
I256
sS'x'
I0
sbag3
(g129
g5
NtRp255
(dp256
g10
I0
sg12
I0
sg17
I32
sg18
I32
sS'y'
I256
sS'x'
I160
sbag3
(g132
g5
NtRp257
(dp258
S'y'
I512
sS'x'
I1216
sg51
I32
sS'img'
p259
S'img/World/lock.png'
p260
sg43
I32
sbag3
(g132
g5
NtRp261
(dp262
S'y'
I512
sS'x'
I1248
sg51
I32
sg259
S'img/World/lock.png'
p263
sg43
I32
sbag3
(g132
g5
NtRp264
(dp265
S'y'
I512
sS'x'
I1280
sg51
I32
sg259
S'img/World/lock.png'
p266
sg43
I32
sbag3
(g132
g5
NtRp267
(dp268
S'y'
I512
sS'x'
I1312
sg51
I32
sg259
S'img/World/lock.png'
p269
sg43
I32
sbag3
(g132
g5
NtRp270
(dp271
S'y'
I512
sS'x'
I1344
sg51
I32
sg259
S'img/World/lock.png'
p272
sg43
I32
sbag3
(g132
g5
NtRp273
(dp274
S'y'
I512
sS'x'
I1344
sg51
I32
sg259
S'img/World/lock.png'
p275
sg43
I32
sbag3
(g132
g5
NtRp276
(dp277
S'y'
I512
sS'x'
I1376
sg51
I32
sg259
S'img/World/lock.png'
p278
sg43
I32
sbag3
(cGameObjects
Goal
p279
g5
NtRp280
(dp281
S'y'
I384
sS'x'
I1408
sg51
I160
sg259
S'img/World/goal.png'
p282
sg43
I160
sbaa(lp283
a.