(lp1
(lp2
ccopy_reg
_reconstructor
p3
(cSomyeol
Somyeol
p4
c__builtin__
object
p5
NtRp6
(dp7
S'hasKey'
p8
I00
sS'animationCnt'
p9
I10
sS'yspeed'
p10
I0
sS'nonstopJump'
p11
I01
sS'xspeed'
p12
I0
sS'canJump'
p13
I00
sS'currentFile'
p14
I0
sS'breathFactor'
p15
I1
sS'dead'
p16
I00
sS'filename'
p17
S'img/Somyeols/Somyeol_stand_0.png'
p18
sS'width'
p19
I32
sS'points'
p20
I10
sS'jumpSpeed'
p21
F10.25
sS'breathIn'
p22
I01
sS'filenames'
p23
(lp24
g18
aS'img/Somyeols/Somyeol_stand_1.png'
p25
asS'y'
I283
sS'x'
I257
sS'moveSpeed'
p26
F0.20000000000000001
sS'height'
p27
I64
sS'inverted'
p28
I00
sbag3
(g4
g5
NtRp29
(dp30
g8
I00
sg9
I10
sg10
I0
sg11
I01
sg12
I0
sg13
I00
sg14
I0
sg15
I1
sg16
I00
sg17
S'img/Somyeols/Somyeol_stand_0.png'
p31
sg19
I32
sg20
I10
sg21
F10.25
sg22
I01
sg23
(lp32
g31
aS'img/Somyeols/Somyeol_stand_1.png'
p33
asS'y'
I286
sS'x'
I253
sg26
F0.20000000000000001
sg27
I64
sg28
I00
sbag3
(g4
g5
NtRp34
(dp35
g8
I00
sg9
I10
sg10
I0
sg11
I01
sg12
I0
sg13
I00
sg14
I0
sg15
I1
sg16
I00
sg17
S'img/Somyeols/Somyeol_stand_0.png'
p36
sg19
I32
sg20
I10
sg21
F10.25
sg22
I01
sg23
(lp37
g36
aS'img/Somyeols/Somyeol_stand_1.png'
p38
asS'y'
I288
sS'x'
I252
sg26
F0.20000000000000001
sg27
I64
sg28
I00
sbag3
(g4
g5
NtRp39
(dp40
g8
I00
sg9
I10
sg10
I0
sg11
I01
sg12
I0
sg13
I00
sg14
I0
sg15
I1
sg16
I00
sg17
S'img/Somyeols/Somyeol_stand_0.png'
p41
sg19
I32
sg20
I10
sg21
F10.25
sg22
I01
sg23
(lp42
g41
aS'img/Somyeols/Somyeol_stand_1.png'
p43
asS'y'
I276
sS'x'
I264
sg26
F0.20000000000000001
sg27
I64
sg28
I00
sbag3
(g4
g5
NtRp44
(dp45
g8
I00
sg9
I10
sg10
I0
sg11
I01
sg12
I0
sg13
I00
sg14
I0
sg15
I1
sg16
I00
sg17
S'img/Somyeols/Somyeol_stand_0.png'
p46
sg19
I32
sg20
I10
sg21
F10.25
sg22
I01
sg23
(lp47
g46
aS'img/Somyeols/Somyeol_stand_1.png'
p48
asS'y'
I292
sS'x'
I262
sg26
F0.20000000000000001
sg27
I64
sg28
I00
sbag3
(g4
g5
NtRp49
(dp50
g8
I00
sg9
I10
sg10
I0
sg11
I01
sg12
I0
sg13
I00
sg14
I0
sg15
I1
sg16
I00
sg17
S'img/Somyeols/Somyeol_stand_0.png'
p51
sg19
I32
sg20
I10
sg21
F10.25
sg22
I01
sg23
(lp52
g51
aS'img/Somyeols/Somyeol_stand_1.png'
p53
asS'y'
I280
sS'x'
I266
sg26
F0.20000000000000001
sg27
I64
sg28
I00
sbag3
(g4
g5
NtRp54
(dp55
g8
I00
sg9
I10
sg10
I0
sg11
I01
sg12
I0
sg13
I00
sg14
I0
sg15
I1
sg16
I00
sg17
S'img/Somyeols/Somyeol_stand_0.png'
p56
sg19
I32
sg20
I10
sg21
F10.25
sg22
I01
sg23
(lp57
g56
aS'img/Somyeols/Somyeol_stand_1.png'
p58
asS'y'
I280
sS'x'
I260
sg26
F0.20000000000000001
sg27
I64
sg28
I00
sbag3
(g4
g5
NtRp59
(dp60
g8
I00
sg9
I10
sg10
I0
sg11
I01
sg12
I0
sg13
I00
sg14
I0
sg15
I1
sg16
I00
sg17
S'img/Somyeols/Somyeol_stand_0.png'
p61
sg19
I32
sg20
I10
sg21
F10.25
sg22
I01
sg23
(lp62
g61
aS'img/Somyeols/Somyeol_stand_1.png'
p63
asS'y'
I295
sS'x'
I246
sg26
F0.20000000000000001
sg27
I64
sg28
I00
sbag3
(g4
g5
NtRp64
(dp65
g8
I00
sg9
I10
sg10
I0
sg11
I01
sg12
I0
sg13
I00
sg14
I0
sg15
I1
sg16
I00
sg17
S'img/Somyeols/Somyeol_stand_0.png'
p66
sg19
I32
sg20
I10
sg21
F10.25
sg22
I01
sg23
(lp67
g66
aS'img/Somyeols/Somyeol_stand_1.png'
p68
asS'y'
I279
sS'x'
I265
sg26
F0.20000000000000001
sg27
I64
sg28
I00
sbag3
(g4
g5
NtRp69
(dp70
g8
I00
sg9
I10
sg10
I0
sg11
I01
sg12
I0
sg13
I00
sg14
I0
sg15
I1
sg16
I00
sg17
S'img/Somyeols/Somyeol_stand_0.png'
p71
sg19
I32
sg20
I10
sg21
F10.25
sg22
I01
sg23
(lp72
g71
aS'img/Somyeols/Somyeol_stand_1.png'
p73
asS'y'
I291
sS'x'
I251
sg26
F0.20000000000000001
sg27
I64
sg28
I00
sbag3
(g4
g5
NtRp74
(dp75
g8
I00
sg9
I10
sg10
I0
sg11
I01
sg12
I0
sg13
I00
sg14
I0
sg15
I1
sg16
I00
sg17
S'img/Somyeols/Somyeol_stand_0.png'
p76
sg19
I32
sg20
I10
sg21
F10.25
sg22
I01
sg23
(lp77
g76
aS'img/Somyeols/Somyeol_stand_1.png'
p78
asS'y'
I276
sS'x'
I291
sg26
F0.20000000000000001
sg27
I64
sg28
I00
sbag3
(g4
g5
NtRp79
(dp80
g8
I00
sg9
I10
sg10
I0
sg11
I01
sg12
I0
sg13
I00
sg14
I0
sg15
I1
sg16
I00
sg17
S'img/Somyeols/Somyeol_stand_0.png'
p81
sg19
I32
sg20
I10
sg21
F10.25
sg22
I01
sg23
(lp82
g81
aS'img/Somyeols/Somyeol_stand_1.png'
p83
asS'y'
I278
sS'x'
I294
sg26
F0.20000000000000001
sg27
I64
sg28
I00
sbag3
(g4
g5
NtRp84
(dp85
g8
I00
sg9
I10
sg10
I0
sg11
I01
sg12
I0
sg13
I00
sg14
I0
sg15
I1
sg16
I00
sg17
S'img/Somyeols/Somyeol_stand_0.png'
p86
sg19
I32
sg20
I10
sg21
F10.25
sg22
I01
sg23
(lp87
g86
aS'img/Somyeols/Somyeol_stand_1.png'
p88
asS'y'
I288
sS'x'
I290
sg26
F0.20000000000000001
sg27
I64
sg28
I00
sbag3
(g4
g5
NtRp89
(dp90
g8
I00
sg9
I10
sg10
I0
sg11
I01
sg12
I0
sg13
I00
sg14
I0
sg15
I1
sg16
I00
sg17
S'img/Somyeols/Somyeol_stand_0.png'
p91
sg19
I32
sg20
I10
sg21
F10.25
sg22
I01
sg23
(lp92
g91
aS'img/Somyeols/Somyeol_stand_1.png'
p93
asS'y'
I282
sS'x'
I279
sg26
F0.20000000000000001
sg27
I64
sg28
I00
sbag3
(g4
g5
NtRp94
(dp95
g8
I00
sg9
I10
sg10
I0
sg11
I01
sg12
I0
sg13
I00
sg14
I0
sg15
I1
sg16
I00
sg17
S'img/Somyeols/Somyeol_stand_0.png'
p96
sg19
I32
sg20
I10
sg21
F10.25
sg22
I01
sg23
(lp97
g96
aS'img/Somyeols/Somyeol_stand_1.png'
p98
asS'y'
I294
sS'x'
I298
sg26
F0.20000000000000001
sg27
I64
sg28
I00
sbag3
(g4
g5
NtRp99
(dp100
g8
I00
sg9
I10
sg10
I0
sg11
I01
sg12
I0
sg13
I00
sg14
I0
sg15
I1
sg16
I00
sg17
S'img/Somyeols/Somyeol_stand_0.png'
p101
sg19
I32
sg20
I10
sg21
F10.25
sg22
I01
sg23
(lp102
g101
aS'img/Somyeols/Somyeol_stand_1.png'
p103
asS'y'
I280
sS'x'
I293
sg26
F0.20000000000000001
sg27
I64
sg28
I00
sbag3
(g4
g5
NtRp104
(dp105
g8
I00
sg9
I10
sg10
I0
sg11
I01
sg12
I0
sg13
I00
sg14
I0
sg15
I1
sg16
I00
sg17
S'img/Somyeols/Somyeol_stand_0.png'
p106
sg19
I32
sg20
I10
sg21
F10.25
sg22
I01
sg23
(lp107
g106
aS'img/Somyeols/Somyeol_stand_1.png'
p108
asS'y'
I283
sS'x'
I296
sg26
F0.20000000000000001
sg27
I64
sg28
I00
sbag3
(g4
g5
NtRp109
(dp110
g8
I00
sg9
I10
sg10
I0
sg11
I01
sg12
I0
sg13
I00
sg14
I0
sg15
I1
sg16
I00
sg17
S'img/Somyeols/Somyeol_stand_0.png'
p111
sg19
I32
sg20
I10
sg21
F10.25
sg22
I01
sg23
(lp112
g111
aS'img/Somyeols/Somyeol_stand_1.png'
p113
asS'y'
I276
sS'x'
I281
sg26
F0.20000000000000001
sg27
I64
sg28
I00
sbag3
(g4
g5
NtRp114
(dp115
g8
I00
sg9
I10
sg10
I0
sg11
I01
sg12
I0
sg13
I00
sg14
I0
sg15
I1
sg16
I00
sg17
S'img/Somyeols/Somyeol_stand_0.png'
p116
sg19
I32
sg20
I10
sg21
F10.25
sg22
I01
sg23
(lp117
g116
aS'img/Somyeols/Somyeol_stand_1.png'
p118
asS'y'
I291
sS'x'
I294
sg26
F0.20000000000000001
sg27
I64
sg28
I00
sbag3
(g4
g5
NtRp119
(dp120
g8
I00
sg9
I10
sg10
I0
sg11
I01
sg12
I0
sg13
I00
sg14
I0
sg15
I1
sg16
I00
sg17
S'img/Somyeols/Somyeol_stand_0.png'
p121
sg19
I32
sg20
I10
sg21
F10.25
sg22
I01
sg23
(lp122
g121
aS'img/Somyeols/Somyeol_stand_1.png'
p123
asS'y'
I279
sS'x'
I298
sg26
F0.20000000000000001
sg27
I64
sg28
I00
sbaa(lp124
g3
(cGameObjects
Box
p125
g5
NtRp126
(dp127
g10
I0
sg12
I0
sg27
I32
sg19
I832
sS'y'
I384
sS'x'
I160
sbag3
(cGameObjects
Goal
p128
g5
NtRp129
(dp130
S'y'
I224
sS'x'
I832
sg27
I160
sS'img'
p131
S'img/World/goal.png'
p132
sg19
I160
sbag3
(cGameObjects
Spike
p133
g5
NtRp134
(dp135
S'y'
I368
sS'x'
I496
sg27
I16
sg131
S'img/World/spike.png'
p136
sg19
I32
sbag3
(g133
g5
NtRp137
(dp138
S'y'
I368
sS'x'
I528
sg27
I16
sg131
S'img/World/spike.png'
p139
sg19
I32
sbag3
(g133
g5
NtRp140
(dp141
S'y'
I368
sS'x'
I560
sg27
I16
sg131
S'img/World/spike.png'
p142
sg19
I32
sbag3
(g133
g5
NtRp143
(dp144
S'y'
I368
sS'x'
I592
sg27
I16
sg131
S'img/World/spike.png'
p145
sg19
I32
sbag3
(g133
g5
NtRp146
(dp147
S'y'
I368
sS'x'
I624
sg27
I16
sg131
S'img/World/spike.png'
p148
sg19
I32
sbaa(lp149
g3
(cImage
Image
p150
g5
NtRp151
(dp152
S'y'
I224
sS'x'
I512
sg27
I128
sg19
I128
sg17
S'img/gadgets/death.png'
p153
sbaa.