(lp1
(lp2
ccopy_reg
_reconstructor
p3
(cSomyeol
Somyeol
p4
c__builtin__
object
p5
NtRp6
(dp7
S'hasKey'
p8
I00
sS'animationCnt'
p9
I10
sS'yspeed'
p10
I0
sS'nonstopJump'
p11
I01
sS'xspeed'
p12
I0
sS'canJump'
p13
I00
sS'currentFile'
p14
I0
sS'breathFactor'
p15
I1
sS'dead'
p16
I00
sS'height'
p17
I64
sS'width'
p18
I32
sS'points'
p19
I10
sS'jumpSpeed'
p20
F10.25
sS'breathIn'
p21
I01
sS'filenames'
p22
(lp23
S'img/Somyeols/Somyeol_stand_0.png'
p24
aS'img/Somyeols/Somyeol_stand_1.png'
p25
asS'y'
I-747
sS'x'
I502
sS'moveSpeed'
p26
F0.20000000000000001
sS'filename'
p27
g24
sS'inverted'
p28
I00
sbag3
(g4
g5
NtRp29
(dp30
g8
I00
sg9
I10
sg10
I0
sg11
I01
sg12
I0
sg13
I00
sg14
I0
sg15
I1
sg16
I00
sg17
I64
sg18
I32
sg19
I10
sg20
F10.25
sg21
I01
sg22
(lp31
S'img/Somyeols/Somyeol_stand_0.png'
p32
aS'img/Somyeols/Somyeol_stand_1.png'
p33
asS'y'
I-736
sS'x'
I520
sg26
F0.20000000000000001
sg27
g32
sg28
I00
sbag3
(g4
g5
NtRp34
(dp35
g8
I00
sg9
I10
sg10
I0
sg11
I01
sg12
I0
sg13
I00
sg14
I0
sg15
I1
sg16
I00
sg17
I64
sg18
I32
sg19
I10
sg20
F10.25
sg21
I01
sg22
(lp36
S'img/Somyeols/Somyeol_stand_0.png'
p37
aS'img/Somyeols/Somyeol_stand_1.png'
p38
asS'y'
I-745
sS'x'
I514
sg26
F0.20000000000000001
sg27
g37
sg28
I00
sbag3
(g4
g5
NtRp39
(dp40
g8
I00
sg9
I10
sg10
I0
sg11
I01
sg12
I0
sg13
I00
sg14
I0
sg15
I1
sg16
I00
sg17
I64
sg18
I32
sg19
I10
sg20
F10.25
sg21
I01
sg22
(lp41
S'img/Somyeols/Somyeol_stand_0.png'
p42
aS'img/Somyeols/Somyeol_stand_1.png'
p43
asS'y'
I-738
sS'x'
I507
sg26
F0.20000000000000001
sg27
g42
sg28
I00
sbag3
(g4
g5
NtRp44
(dp45
g8
I00
sg9
I10
sg10
I0
sg11
I01
sg12
I0
sg13
I00
sg14
I0
sg15
I1
sg16
I00
sg17
I64
sg18
I32
sg19
I10
sg20
F10.25
sg21
I01
sg22
(lp46
S'img/Somyeols/Somyeol_stand_0.png'
p47
aS'img/Somyeols/Somyeol_stand_1.png'
p48
asS'y'
I-732
sS'x'
I521
sg26
F0.20000000000000001
sg27
g47
sg28
I00
sbag3
(g4
g5
NtRp49
(dp50
g8
I00
sg9
I10
sg10
I0
sg11
I01
sg12
I0
sg13
I00
sg14
I0
sg15
I1
sg16
I00
sg17
I64
sg18
I32
sg19
I10
sg20
F10.25
sg21
I01
sg22
(lp51
S'img/Somyeols/Somyeol_stand_0.png'
p52
aS'img/Somyeols/Somyeol_stand_1.png'
p53
asS'y'
I-741
sS'x'
I512
sg26
F0.20000000000000001
sg27
g52
sg28
I00
sbag3
(g4
g5
NtRp54
(dp55
g8
I00
sg9
I10
sg10
I0
sg11
I01
sg12
I0
sg13
I00
sg14
I0
sg15
I1
sg16
I00
sg17
I64
sg18
I32
sg19
I10
sg20
F10.25
sg21
I01
sg22
(lp56
S'img/Somyeols/Somyeol_stand_0.png'
p57
aS'img/Somyeols/Somyeol_stand_1.png'
p58
asS'y'
I-748
sS'x'
I506
sg26
F0.20000000000000001
sg27
g57
sg28
I00
sbag3
(g4
g5
NtRp59
(dp60
g8
I00
sg9
I10
sg10
I0
sg11
I01
sg12
I0
sg13
I00
sg14
I0
sg15
I1
sg16
I00
sg17
I64
sg18
I32
sg19
I10
sg20
F10.25
sg21
I01
sg22
(lp61
S'img/Somyeols/Somyeol_stand_0.png'
p62
aS'img/Somyeols/Somyeol_stand_1.png'
p63
asS'y'
I-732
sS'x'
I507
sg26
F0.20000000000000001
sg27
g62
sg28
I00
sbag3
(g4
g5
NtRp64
(dp65
g8
I00
sg9
I10
sg10
I0
sg11
I01
sg12
I0
sg13
I00
sg14
I0
sg15
I1
sg16
I00
sg17
I64
sg18
I32
sg19
I10
sg20
F10.25
sg21
I01
sg22
(lp66
S'img/Somyeols/Somyeol_stand_0.png'
p67
aS'img/Somyeols/Somyeol_stand_1.png'
p68
asS'y'
I-746
sS'x'
I518
sg26
F0.20000000000000001
sg27
g67
sg28
I00
sbag3
(g4
g5
NtRp69
(dp70
g8
I00
sg9
I10
sg10
I0
sg11
I01
sg12
I0
sg13
I00
sg14
I0
sg15
I1
sg16
I00
sg17
I64
sg18
I32
sg19
I10
sg20
F10.25
sg21
I01
sg22
(lp71
S'img/Somyeols/Somyeol_stand_0.png'
p72
aS'img/Somyeols/Somyeol_stand_1.png'
p73
asS'y'
I-732
sS'x'
I502
sg26
F0.20000000000000001
sg27
g72
sg28
I00
sbag3
(cSomyeol
EvilSomyeol
p74
g5
NtRp75
(dp76
g8
I00
sg9
I10
sg10
I0
sg11
I01
sg12
I0
sg13
I00
sg14
I0
sg15
I1
sg16
I00
sg17
I64
sg18
I32
sg19
I-100
sg20
F10.25
sg21
I01
sg22
(lp77
S'img/Somyeols/EvilSomyeol_small_0.png'
p78
aS'img/Somyeols/EvilSomyeol_small_1.png'
p79
asS'y'
I-737
sS'x'
I544
sg26
F0.20000000000000001
sg27
g78
sg28
I00
sbag3
(g74
g5
NtRp80
(dp81
g8
I00
sg9
I10
sg10
I0
sg11
I01
sg12
I0
sg13
I00
sg14
I0
sg15
I1
sg16
I00
sg17
I64
sg18
I32
sg19
I-100
sg20
F10.25
sg21
I01
sg22
(lp82
S'img/Somyeols/EvilSomyeol_small_0.png'
p83
aS'img/Somyeols/EvilSomyeol_small_1.png'
p84
asS'y'
I-744
sS'x'
I548
sg26
F0.20000000000000001
sg27
g83
sg28
I00
sbag3
(g74
g5
NtRp85
(dp86
g8
I00
sg9
I10
sg10
I0
sg11
I01
sg12
I0
sg13
I00
sg14
I0
sg15
I1
sg16
I00
sg17
I64
sg18
I32
sg19
I-100
sg20
F10.25
sg21
I01
sg22
(lp87
S'img/Somyeols/EvilSomyeol_small_0.png'
p88
aS'img/Somyeols/EvilSomyeol_small_1.png'
p89
asS'y'
I-730
sS'x'
I547
sg26
F0.20000000000000001
sg27
g88
sg28
I00
sbag3
(g74
g5
NtRp90
(dp91
g8
I00
sg9
I10
sg10
I0
sg11
I01
sg12
I0
sg13
I00
sg14
I0
sg15
I1
sg16
I00
sg17
I64
sg18
I32
sg19
I-100
sg20
F10.25
sg21
I01
sg22
(lp92
S'img/Somyeols/EvilSomyeol_small_0.png'
p93
aS'img/Somyeols/EvilSomyeol_small_1.png'
p94
asS'y'
I-734
sS'x'
I540
sg26
F0.20000000000000001
sg27
g93
sg28
I00
sbag3
(g74
g5
NtRp95
(dp96
g8
I00
sg9
I10
sg10
I0
sg11
I01
sg12
I0
sg13
I00
sg14
I0
sg15
I1
sg16
I00
sg17
I64
sg18
I32
sg19
I-100
sg20
F10.25
sg21
I01
sg22
(lp97
S'img/Somyeols/EvilSomyeol_small_0.png'
p98
aS'img/Somyeols/EvilSomyeol_small_1.png'
p99
asS'y'
I-736
sS'x'
I538
sg26
F0.20000000000000001
sg27
g98
sg28
I00
sbag3
(g74
g5
NtRp100
(dp101
g8
I00
sg9
I10
sg10
I0
sg11
I01
sg12
I0
sg13
I00
sg14
I0
sg15
I1
sg16
I00
sg17
I64
sg18
I32
sg19
I-100
sg20
F10.25
sg21
I01
sg22
(lp102
S'img/Somyeols/EvilSomyeol_small_0.png'
p103
aS'img/Somyeols/EvilSomyeol_small_1.png'
p104
asS'y'
I-743
sS'x'
I553
sg26
F0.20000000000000001
sg27
g103
sg28
I00
sbag3
(g74
g5
NtRp105
(dp106
g8
I00
sg9
I10
sg10
I0
sg11
I01
sg12
I0
sg13
I00
sg14
I0
sg15
I1
sg16
I00
sg17
I64
sg18
I32
sg19
I-100
sg20
F10.25
sg21
I01
sg22
(lp107
S'img/Somyeols/EvilSomyeol_small_0.png'
p108
aS'img/Somyeols/EvilSomyeol_small_1.png'
p109
asS'y'
I-743
sS'x'
I536
sg26
F0.20000000000000001
sg27
g108
sg28
I00
sbag3
(g74
g5
NtRp110
(dp111
g8
I00
sg9
I10
sg10
I0
sg11
I01
sg12
I0
sg13
I00
sg14
I0
sg15
I1
sg16
I00
sg17
I64
sg18
I32
sg19
I-100
sg20
F10.25
sg21
I01
sg22
(lp112
S'img/Somyeols/EvilSomyeol_small_0.png'
p113
aS'img/Somyeols/EvilSomyeol_small_1.png'
p114
asS'y'
I-731
sS'x'
I550
sg26
F0.20000000000000001
sg27
g113
sg28
I00
sbag3
(g74
g5
NtRp115
(dp116
g8
I00
sg9
I10
sg10
I0
sg11
I01
sg12
I0
sg13
I00
sg14
I0
sg15
I1
sg16
I00
sg17
I64
sg18
I32
sg19
I-100
sg20
F10.25
sg21
I01
sg22
(lp117
S'img/Somyeols/EvilSomyeol_small_0.png'
p118
aS'img/Somyeols/EvilSomyeol_small_1.png'
p119
asS'y'
I-734
sS'x'
I537
sg26
F0.20000000000000001
sg27
g118
sg28
I00
sbag3
(g74
g5
NtRp120
(dp121
g8
I00
sg9
I10
sg10
I0
sg11
I01
sg12
I0
sg13
I00
sg14
I0
sg15
I1
sg16
I00
sg17
I64
sg18
I32
sg19
I-100
sg20
F10.25
sg21
I01
sg22
(lp122
S'img/Somyeols/EvilSomyeol_small_0.png'
p123
aS'img/Somyeols/EvilSomyeol_small_1.png'
p124
asS'y'
I-739
sS'x'
I541
sg26
F0.20000000000000001
sg27
g123
sg28
I00
sbag3
(g4
g5
NtRp125
(dp126
g8
I00
sg9
I10
sg10
I0
sg11
I01
sg12
I0
sg13
I00
sg14
I0
sg15
I1
sg16
I00
sg17
I64
sg18
I32
sg19
I10
sg20
F10.25
sg21
I01
sg22
(lp127
S'img/Somyeols/Somyeol_stand_0.png'
p128
aS'img/Somyeols/Somyeol_stand_1.png'
p129
asS'y'
I-728
sS'x'
I583
sg26
F0.20000000000000001
sg27
g128
sg28
I00
sbag3
(g4
g5
NtRp130
(dp131
g8
I00
sg9
I10
sg10
I0
sg11
I01
sg12
I0
sg13
I00
sg14
I0
sg15
I1
sg16
I00
sg17
I64
sg18
I32
sg19
I10
sg20
F10.25
sg21
I01
sg22
(lp132
S'img/Somyeols/Somyeol_stand_0.png'
p133
aS'img/Somyeols/Somyeol_stand_1.png'
p134
asS'y'
I-746
sS'x'
I579
sg26
F0.20000000000000001
sg27
g133
sg28
I00
sbag3
(g4
g5
NtRp135
(dp136
g8
I00
sg9
I10
sg10
I0
sg11
I01
sg12
I0
sg13
I00
sg14
I0
sg15
I1
sg16
I00
sg17
I64
sg18
I32
sg19
I10
sg20
F10.25
sg21
I01
sg22
(lp137
S'img/Somyeols/Somyeol_stand_0.png'
p138
aS'img/Somyeols/Somyeol_stand_1.png'
p139
asS'y'
I-742
sS'x'
I586
sg26
F0.20000000000000001
sg27
g138
sg28
I00
sbag3
(g4
g5
NtRp140
(dp141
g8
I00
sg9
I10
sg10
I0
sg11
I01
sg12
I0
sg13
I00
sg14
I0
sg15
I1
sg16
I00
sg17
I64
sg18
I32
sg19
I10
sg20
F10.25
sg21
I01
sg22
(lp142
S'img/Somyeols/Somyeol_stand_0.png'
p143
aS'img/Somyeols/Somyeol_stand_1.png'
p144
asS'y'
I-733
sS'x'
I568
sg26
F0.20000000000000001
sg27
g143
sg28
I00
sbag3
(g4
g5
NtRp145
(dp146
g8
I00
sg9
I10
sg10
I0
sg11
I01
sg12
I0
sg13
I00
sg14
I0
sg15
I1
sg16
I00
sg17
I64
sg18
I32
sg19
I10
sg20
F10.25
sg21
I01
sg22
(lp147
S'img/Somyeols/Somyeol_stand_0.png'
p148
aS'img/Somyeols/Somyeol_stand_1.png'
p149
asS'y'
I-744
sS'x'
I581
sg26
F0.20000000000000001
sg27
g148
sg28
I00
sbag3
(g4
g5
NtRp150
(dp151
g8
I00
sg9
I10
sg10
I0
sg11
I01
sg12
I0
sg13
I00
sg14
I0
sg15
I1
sg16
I00
sg17
I64
sg18
I32
sg19
I10
sg20
F10.25
sg21
I01
sg22
(lp152
S'img/Somyeols/Somyeol_stand_0.png'
p153
aS'img/Somyeols/Somyeol_stand_1.png'
p154
asS'y'
I-730
sS'x'
I568
sg26
F0.20000000000000001
sg27
g153
sg28
I00
sbag3
(g4
g5
NtRp155
(dp156
g8
I00
sg9
I10
sg10
I0
sg11
I01
sg12
I0
sg13
I00
sg14
I0
sg15
I1
sg16
I00
sg17
I64
sg18
I32
sg19
I10
sg20
F10.25
sg21
I01
sg22
(lp157
S'img/Somyeols/Somyeol_stand_0.png'
p158
aS'img/Somyeols/Somyeol_stand_1.png'
p159
asS'y'
I-746
sS'x'
I584
sg26
F0.20000000000000001
sg27
g158
sg28
I00
sbag3
(g4
g5
NtRp160
(dp161
g8
I00
sg9
I10
sg10
I0
sg11
I01
sg12
I0
sg13
I00
sg14
I0
sg15
I1
sg16
I00
sg17
I64
sg18
I32
sg19
I10
sg20
F10.25
sg21
I01
sg22
(lp162
S'img/Somyeols/Somyeol_stand_0.png'
p163
aS'img/Somyeols/Somyeol_stand_1.png'
p164
asS'y'
I-734
sS'x'
I583
sg26
F0.20000000000000001
sg27
g163
sg28
I00
sbag3
(g4
g5
NtRp165
(dp166
g8
I00
sg9
I10
sg10
I0
sg11
I01
sg12
I0
sg13
I00
sg14
I0
sg15
I1
sg16
I00
sg17
I64
sg18
I32
sg19
I10
sg20
F10.25
sg21
I01
sg22
(lp167
S'img/Somyeols/Somyeol_stand_0.png'
p168
aS'img/Somyeols/Somyeol_stand_1.png'
p169
asS'y'
I-740
sS'x'
I586
sg26
F0.20000000000000001
sg27
g168
sg28
I00
sbag3
(g4
g5
NtRp170
(dp171
g8
I00
sg9
I10
sg10
I0
sg11
I01
sg12
I0
sg13
I00
sg14
I0
sg15
I1
sg16
I00
sg17
I64
sg18
I32
sg19
I10
sg20
F10.25
sg21
I01
sg22
(lp172
S'img/Somyeols/Somyeol_stand_0.png'
p173
aS'img/Somyeols/Somyeol_stand_1.png'
p174
asS'y'
I-735
sS'x'
I568
sg26
F0.20000000000000001
sg27
g173
sg28
I00
sbag3
(g4
g5
NtRp175
(dp176
g8
I00
sg9
I10
sg10
I0
sg11
I01
sg12
I0
sg13
I00
sg14
I0
sg15
I1
sg16
I00
sg27
S'img/Somyeols/Somyeol_stand_0.png'
p177
sg18
I32
sg19
I10
sg20
F10.25
sg21
I01
sg22
(lp178
g177
aS'img/Somyeols/Somyeol_stand_1.png'
p179
asS'y'
I-738
sS'x'
I601
sg26
F0.20000000000000001
sg17
I64
sg28
I00
sbag3
(g4
g5
NtRp180
(dp181
g8
I00
sg9
I10
sg10
I0
sg11
I01
sg12
I0
sg13
I00
sg14
I0
sg15
I1
sg16
I00
sg27
S'img/Somyeols/Somyeol_stand_0.png'
p182
sg18
I32
sg19
I10
sg20
F10.25
sg21
I01
sg22
(lp183
g182
aS'img/Somyeols/Somyeol_stand_1.png'
p184
asS'y'
I-738
sS'x'
I605
sg26
F0.20000000000000001
sg17
I64
sg28
I00
sbag3
(g4
g5
NtRp185
(dp186
g8
I00
sg9
I10
sg10
I0
sg11
I01
sg12
I0
sg13
I00
sg14
I0
sg15
I1
sg16
I00
sg27
S'img/Somyeols/Somyeol_stand_0.png'
p187
sg18
I32
sg19
I10
sg20
F10.25
sg21
I01
sg22
(lp188
g187
aS'img/Somyeols/Somyeol_stand_1.png'
p189
asS'y'
I-738
sS'x'
I601
sg26
F0.20000000000000001
sg17
I64
sg28
I00
sbag3
(g4
g5
NtRp190
(dp191
g8
I00
sg9
I10
sg10
I0
sg11
I01
sg12
I0
sg13
I00
sg14
I0
sg15
I1
sg16
I00
sg27
S'img/Somyeols/Somyeol_stand_0.png'
p192
sg18
I32
sg19
I10
sg20
F10.25
sg21
I01
sg22
(lp193
g192
aS'img/Somyeols/Somyeol_stand_1.png'
p194
asS'y'
I-740
sS'x'
I603
sg26
F0.20000000000000001
sg17
I64
sg28
I00
sbag3
(g4
g5
NtRp195
(dp196
g8
I00
sg9
I10
sg10
I0
sg11
I01
sg12
I0
sg13
I00
sg14
I0
sg15
I1
sg16
I00
sg27
S'img/Somyeols/Somyeol_stand_0.png'
p197
sg18
I32
sg19
I10
sg20
F10.25
sg21
I01
sg22
(lp198
g197
aS'img/Somyeols/Somyeol_stand_1.png'
p199
asS'y'
I-733
sS'x'
I600
sg26
F0.20000000000000001
sg17
I64
sg28
I00
sbag3
(g4
g5
NtRp200
(dp201
g8
I00
sg9
I10
sg10
I0
sg11
I01
sg12
I0
sg13
I00
sg14
I0
sg15
I1
sg16
I00
sg27
S'img/Somyeols/Somyeol_stand_0.png'
p202
sg18
I32
sg19
I10
sg20
F10.25
sg21
I01
sg22
(lp203
g202
aS'img/Somyeols/Somyeol_stand_1.png'
p204
asS'y'
I-743
sS'x'
I499
sg26
F0.20000000000000001
sg17
I64
sg28
I00
sbag3
(g4
g5
NtRp205
(dp206
g8
I00
sg9
I10
sg10
I0
sg11
I01
sg12
I0
sg13
I00
sg14
I0
sg15
I1
sg16
I00
sg27
S'img/Somyeols/Somyeol_stand_0.png'
p207
sg18
I32
sg19
I10
sg20
F10.25
sg21
I01
sg22
(lp208
g207
aS'img/Somyeols/Somyeol_stand_1.png'
p209
asS'y'
I-739
sS'x'
I492
sg26
F0.20000000000000001
sg17
I64
sg28
I00
sbag3
(g4
g5
NtRp210
(dp211
g8
I00
sg9
I10
sg10
I0
sg11
I01
sg12
I0
sg13
I00
sg14
I0
sg15
I1
sg16
I00
sg27
S'img/Somyeols/Somyeol_stand_0.png'
p212
sg18
I32
sg19
I10
sg20
F10.25
sg21
I01
sg22
(lp213
g212
aS'img/Somyeols/Somyeol_stand_1.png'
p214
asS'y'
I-748
sS'x'
I492
sg26
F0.20000000000000001
sg17
I64
sg28
I00
sbag3
(g4
g5
NtRp215
(dp216
g8
I00
sg9
I10
sg10
I0
sg11
I01
sg12
I0
sg13
I00
sg14
I0
sg15
I1
sg16
I00
sg27
S'img/Somyeols/Somyeol_stand_0.png'
p217
sg18
I32
sg19
I10
sg20
F10.25
sg21
I01
sg22
(lp218
g217
aS'img/Somyeols/Somyeol_stand_1.png'
p219
asS'y'
I-740
sS'x'
I496
sg26
F0.20000000000000001
sg17
I64
sg28
I00
sbag3
(g4
g5
NtRp220
(dp221
g8
I00
sg9
I10
sg10
I0
sg11
I01
sg12
I0
sg13
I00
sg14
I0
sg15
I1
sg16
I00
sg27
S'img/Somyeols/Somyeol_stand_0.png'
p222
sg18
I32
sg19
I10
sg20
F10.25
sg21
I01
sg22
(lp223
g222
aS'img/Somyeols/Somyeol_stand_1.png'
p224
asS'y'
I-735
sS'x'
I492
sg26
F0.20000000000000001
sg17
I64
sg28
I00
sbaa(lp225
g3
(cGameObjects
Box
p226
g5
NtRp227
(dp228
g10
I0
sg12
I0
sg17
I32
sg18
I352
sS'y'
I-640
sS'x'
I416
sbag3
(g226
g5
NtRp229
(dp230
g10
I0
sg12
I0
sg17
I32
sg18
I352
sS'y'
I-480
sS'x'
I768
sbag3
(g226
g5
NtRp231
(dp232
g10
I0
sg12
I0
sg17
I32
sg18
I256
sS'y'
I-736
sS'x'
I1120
sbag3
(g226
g5
NtRp233
(dp234
g10
I0
sg12
I0
sg17
I32
sg18
I288
sS'y'
I-448
sS'x'
I1408
sbag3
(g226
g5
NtRp235
(dp236
g10
I0
sg12
I0
sg17
I32
sg18
I288
sS'y'
I224
sS'x'
I2304
sbag3
(g226
g5
NtRp237
(dp238
g10
I0
sg12
I0
sg17
I32
sg18
I288
sS'y'
I32
sS'x'
I2720
sbag3
(cGameObjects
Firetrap
p239
g5
NtRp240
(dp241
S'y'
I-96
sS'x'
I2848
sS'particles'
p242
(lp243
sS'active'
p244
I01
sS'countdown'
p245
I100
sbag3
(cGameObjects
Spike
p246
g5
NtRp247
(dp248
S'y'
I-464
sS'x'
I1552
sg17
I16
sS'img'
p249
S'img/World/spike.png'
p250
sg18
I32
sbag3
(g226
g5
NtRp251
(dp252
g10
I0
sg12
I0
sg17
I32
sg18
I464
sS'y'
I-160
sS'x'
I3184
sbag3
(g226
g5
NtRp253
(dp254
g10
I0
sg12
I0
sg17
I32
sg18
I256
sS'y'
I480
sS'x'
I3936
sbag3
(cGameObjects
Goal
p255
g5
NtRp256
(dp257
S'y'
I320
sS'x'
I3984
sg17
I160
sg249
S'img/World/goal.png'
p258
sg18
I160
sbag3
(g246
g5
NtRp259
(dp260
S'y'
I-96
sS'x'
I3776
sg17
I16
sg249
S'img/World/spike.png'
p261
sg18
I32
sbag3
(g246
g5
NtRp262
(dp263
S'y'
I-64
sS'x'
I3808
sg17
I16
sg249
S'img/World/spike.png'
p264
sg18
I32
sbag3
(g246
g5
NtRp265
(dp266
S'y'
I-32
sS'x'
I3840
sg17
I16
sg249
S'img/World/spike.png'
p267
sg18
I32
sbag3
(g246
g5
NtRp268
(dp269
S'y'
I0
sS'x'
I3872
sg17
I16
sg249
S'img/World/spike.png'
p270
sg18
I32
sbag3
(g246
g5
NtRp271
(dp272
S'y'
I32
sS'x'
I3904
sg17
I16
sg249
S'img/World/spike.png'
p273
sg18
I32
sbag3
(g246
g5
NtRp274
(dp275
S'y'
I64
sS'x'
I3936
sg17
I16
sg249
S'img/World/spike.png'
p276
sg18
I32
sbag3
(g246
g5
NtRp277
(dp278
S'y'
I96
sS'x'
I3968
sg17
I16
sg249
S'img/World/spike.png'
p279
sg18
I32
sbaa(lp280
g3
(cImage
Image
p281
g5
NtRp282
(dp283
S'y'
I-352
sS'x'
I2368
sg17
I128
sg18
I128
sg27
S'img/gadgets/arrow_down.png'
p284
sbag3
(g281
g5
NtRp285
(dp286
S'y'
I-288
sS'x'
I3936
sg17
I128
sg18
I128
sg27
S'img/gadgets/alertsign.png'
p287
sbaa.