(lp1
(lp2
ccopy_reg
_reconstructor
p3
(cSomyeol
CrippleSomyeol
p4
c__builtin__
object
p5
NtRp6
(dp7
S'hasKey'
p8
I00
sS'animationCnt'
p9
I10
sS'yspeed'
p10
I0
sS'nonstopJump'
p11
I01
sS'xspeed'
p12
I0
sS'canJump'
p13
I00
sS'currentFile'
p14
I0
sS'breathFactor'
p15
I1
sS'dead'
p16
I00
sS'filename'
p17
S'img/Somyeols/CrippleSomyeol_small_0.png'
p18
sS'width'
p19
I32
sS'points'
p20
I25
sS'jumpSpeed'
p21
F10.25
sS'breathIn'
p22
I01
sS'filenames'
p23
(lp24
g18
aS'img/Somyeols/CrippleSomyeol_small_1.png'
p25
asS'y'
I-415
sS'x'
I226
sS'moveSpeed'
p26
F0.20000000000000001
sS'height'
p27
I64
sS'inverted'
p28
I00
sbag3
(g4
g5
NtRp29
(dp30
g8
I00
sg9
I10
sg10
I0
sg11
I01
sg12
I0
sg13
I00
sg14
I0
sg15
I1
sg16
I00
sg17
S'img/Somyeols/CrippleSomyeol_small_0.png'
p31
sg19
I32
sg20
I25
sg21
F10.25
sg22
I01
sg23
(lp32
g31
aS'img/Somyeols/CrippleSomyeol_small_1.png'
p33
asS'y'
I-422
sS'x'
I224
sg26
F0.20000000000000001
sg27
I64
sg28
I00
sbag3
(g4
g5
NtRp34
(dp35
g8
I00
sg9
I10
sg10
I0
sg11
I01
sg12
I0
sg13
I00
sg14
I0
sg15
I1
sg16
I00
sg17
S'img/Somyeols/CrippleSomyeol_small_0.png'
p36
sg19
I32
sg20
I25
sg21
F10.25
sg22
I01
sg23
(lp37
g36
aS'img/Somyeols/CrippleSomyeol_small_1.png'
p38
asS'y'
I-409
sS'x'
I215
sg26
F0.20000000000000001
sg27
I64
sg28
I00
sbag3
(g4
g5
NtRp39
(dp40
g8
I00
sg9
I10
sg10
I0
sg11
I01
sg12
I0
sg13
I00
sg14
I0
sg15
I1
sg16
I00
sg17
S'img/Somyeols/CrippleSomyeol_small_0.png'
p41
sg19
I32
sg20
I25
sg21
F10.25
sg22
I01
sg23
(lp42
g41
aS'img/Somyeols/CrippleSomyeol_small_1.png'
p43
asS'y'
I-422
sS'x'
I232
sg26
F0.20000000000000001
sg27
I64
sg28
I00
sbag3
(g4
g5
NtRp44
(dp45
g8
I00
sg9
I10
sg10
I0
sg11
I01
sg12
I0
sg13
I00
sg14
I0
sg15
I1
sg16
I00
sg17
S'img/Somyeols/CrippleSomyeol_small_0.png'
p46
sg19
I32
sg20
I25
sg21
F10.25
sg22
I01
sg23
(lp47
g46
aS'img/Somyeols/CrippleSomyeol_small_1.png'
p48
asS'y'
I-410
sS'x'
I231
sg26
F0.20000000000000001
sg27
I64
sg28
I00
sbag3
(g4
g5
NtRp49
(dp50
g8
I00
sg9
I10
sg10
I0
sg11
I01
sg12
I0
sg13
I00
sg14
I0
sg15
I1
sg16
I00
sg17
S'img/Somyeols/CrippleSomyeol_small_0.png'
p51
sg19
I32
sg20
I25
sg21
F10.25
sg22
I01
sg23
(lp52
g51
aS'img/Somyeols/CrippleSomyeol_small_1.png'
p53
asS'y'
I-414
sS'x'
I219
sg26
F0.20000000000000001
sg27
I64
sg28
I00
sbag3
(g4
g5
NtRp54
(dp55
g8
I00
sg9
I10
sg10
I0
sg11
I01
sg12
I0
sg13
I00
sg14
I0
sg15
I1
sg16
I00
sg17
S'img/Somyeols/CrippleSomyeol_small_0.png'
p56
sg19
I32
sg20
I25
sg21
F10.25
sg22
I01
sg23
(lp57
g56
aS'img/Somyeols/CrippleSomyeol_small_1.png'
p58
asS'y'
I-421
sS'x'
I234
sg26
F0.20000000000000001
sg27
I64
sg28
I00
sbag3
(g4
g5
NtRp59
(dp60
g8
I00
sg9
I10
sg10
I0
sg11
I01
sg12
I0
sg13
I00
sg14
I0
sg15
I1
sg16
I00
sg17
S'img/Somyeols/CrippleSomyeol_small_0.png'
p61
sg19
I32
sg20
I25
sg21
F10.25
sg22
I01
sg23
(lp62
g61
aS'img/Somyeols/CrippleSomyeol_small_1.png'
p63
asS'y'
I-419
sS'x'
I218
sg26
F0.20000000000000001
sg27
I64
sg28
I00
sbag3
(g4
g5
NtRp64
(dp65
g8
I00
sg9
I10
sg10
I0
sg11
I01
sg12
I0
sg13
I00
sg14
I0
sg15
I1
sg16
I00
sg17
S'img/Somyeols/CrippleSomyeol_small_0.png'
p66
sg19
I32
sg20
I25
sg21
F10.25
sg22
I01
sg23
(lp67
g66
aS'img/Somyeols/CrippleSomyeol_small_1.png'
p68
asS'y'
I-428
sS'x'
I224
sg26
F0.20000000000000001
sg27
I64
sg28
I00
sbag3
(g4
g5
NtRp69
(dp70
g8
I00
sg9
I10
sg10
I0
sg11
I01
sg12
I0
sg13
I00
sg14
I0
sg15
I1
sg16
I00
sg17
S'img/Somyeols/CrippleSomyeol_small_0.png'
p71
sg19
I32
sg20
I25
sg21
F10.25
sg22
I01
sg23
(lp72
g71
aS'img/Somyeols/CrippleSomyeol_small_1.png'
p73
asS'y'
I-413
sS'x'
I214
sg26
F0.20000000000000001
sg27
I64
sg28
I00
sbag3
(g4
g5
NtRp74
(dp75
g8
I00
sg9
I10
sg10
I0
sg11
I01
sg12
I0
sg13
I00
sg14
I0
sg15
I1
sg16
I00
sg17
S'img/Somyeols/CrippleSomyeol_small_0.png'
p76
sg19
I32
sg20
I25
sg21
F10.25
sg22
I01
sg23
(lp77
g76
aS'img/Somyeols/CrippleSomyeol_small_1.png'
p78
asS'y'
I-416
sS'x'
I247
sg26
F0.20000000000000001
sg27
I64
sg28
I00
sbag3
(g4
g5
NtRp79
(dp80
g8
I00
sg9
I10
sg10
I0
sg11
I01
sg12
I0
sg13
I00
sg14
I0
sg15
I1
sg16
I00
sg17
S'img/Somyeols/CrippleSomyeol_small_0.png'
p81
sg19
I32
sg20
I25
sg21
F10.25
sg22
I01
sg23
(lp82
g81
aS'img/Somyeols/CrippleSomyeol_small_1.png'
p83
asS'y'
I-411
sS'x'
I249
sg26
F0.20000000000000001
sg27
I64
sg28
I00
sbag3
(g4
g5
NtRp84
(dp85
g8
I00
sg9
I10
sg10
I0
sg11
I01
sg12
I0
sg13
I00
sg14
I0
sg15
I1
sg16
I00
sg17
S'img/Somyeols/CrippleSomyeol_small_0.png'
p86
sg19
I32
sg20
I25
sg21
F10.25
sg22
I01
sg23
(lp87
g86
aS'img/Somyeols/CrippleSomyeol_small_1.png'
p88
asS'y'
I-427
sS'x'
I258
sg26
F0.20000000000000001
sg27
I64
sg28
I00
sbag3
(g4
g5
NtRp89
(dp90
g8
I00
sg9
I10
sg10
I0
sg11
I01
sg12
I0
sg13
I00
sg14
I0
sg15
I1
sg16
I00
sg17
S'img/Somyeols/CrippleSomyeol_small_0.png'
p91
sg19
I32
sg20
I25
sg21
F10.25
sg22
I01
sg23
(lp92
g91
aS'img/Somyeols/CrippleSomyeol_small_1.png'
p93
asS'y'
I-416
sS'x'
I261
sg26
F0.20000000000000001
sg27
I64
sg28
I00
sbag3
(g4
g5
NtRp94
(dp95
g8
I00
sg9
I10
sg10
I0
sg11
I01
sg12
I0
sg13
I00
sg14
I0
sg15
I1
sg16
I00
sg17
S'img/Somyeols/CrippleSomyeol_small_0.png'
p96
sg19
I32
sg20
I25
sg21
F10.25
sg22
I01
sg23
(lp97
g96
aS'img/Somyeols/CrippleSomyeol_small_1.png'
p98
asS'y'
I-414
sS'x'
I266
sg26
F0.20000000000000001
sg27
I64
sg28
I00
sbag3
(g4
g5
NtRp99
(dp100
g8
I00
sg9
I10
sg10
I0
sg11
I01
sg12
I0
sg13
I00
sg14
I0
sg15
I1
sg16
I00
sg17
S'img/Somyeols/CrippleSomyeol_small_0.png'
p101
sg19
I32
sg20
I25
sg21
F10.25
sg22
I01
sg23
(lp102
g101
aS'img/Somyeols/CrippleSomyeol_small_1.png'
p103
asS'y'
I-416
sS'x'
I256
sg26
F0.20000000000000001
sg27
I64
sg28
I00
sbag3
(g4
g5
NtRp104
(dp105
g8
I00
sg9
I10
sg10
I0
sg11
I01
sg12
I0
sg13
I00
sg14
I0
sg15
I1
sg16
I00
sg17
S'img/Somyeols/CrippleSomyeol_small_0.png'
p106
sg19
I32
sg20
I25
sg21
F10.25
sg22
I01
sg23
(lp107
g106
aS'img/Somyeols/CrippleSomyeol_small_1.png'
p108
asS'y'
I-421
sS'x'
I250
sg26
F0.20000000000000001
sg27
I64
sg28
I00
sbag3
(g4
g5
NtRp109
(dp110
g8
I00
sg9
I10
sg10
I0
sg11
I01
sg12
I0
sg13
I00
sg14
I0
sg15
I1
sg16
I00
sg17
S'img/Somyeols/CrippleSomyeol_small_0.png'
p111
sg19
I32
sg20
I25
sg21
F10.25
sg22
I01
sg23
(lp112
g111
aS'img/Somyeols/CrippleSomyeol_small_1.png'
p113
asS'y'
I-427
sS'x'
I265
sg26
F0.20000000000000001
sg27
I64
sg28
I00
sbag3
(g4
g5
NtRp114
(dp115
g8
I00
sg9
I10
sg10
I0
sg11
I01
sg12
I0
sg13
I00
sg14
I0
sg15
I1
sg16
I00
sg17
S'img/Somyeols/CrippleSomyeol_small_0.png'
p116
sg19
I32
sg20
I25
sg21
F10.25
sg22
I01
sg23
(lp117
g116
aS'img/Somyeols/CrippleSomyeol_small_1.png'
p118
asS'y'
I-416
sS'x'
I266
sg26
F0.20000000000000001
sg27
I64
sg28
I00
sbag3
(g4
g5
NtRp119
(dp120
g8
I00
sg9
I10
sg10
I0
sg11
I01
sg12
I0
sg13
I00
sg14
I0
sg15
I1
sg16
I00
sg17
S'img/Somyeols/CrippleSomyeol_small_0.png'
p121
sg19
I32
sg20
I25
sg21
F10.25
sg22
I01
sg23
(lp122
g121
aS'img/Somyeols/CrippleSomyeol_small_1.png'
p123
asS'y'
I-427
sS'x'
I261
sg26
F0.20000000000000001
sg27
I64
sg28
I00
sbag3
(g4
g5
NtRp124
(dp125
g8
I00
sg9
I10
sg10
I0
sg11
I01
sg12
I0
sg13
I00
sg14
I0
sg15
I1
sg16
I00
sg17
S'img/Somyeols/CrippleSomyeol_small_0.png'
p126
sg19
I32
sg20
I25
sg21
F10.25
sg22
I01
sg23
(lp127
g126
aS'img/Somyeols/CrippleSomyeol_small_1.png'
p128
asS'y'
I-425
sS'x'
I284
sg26
F0.20000000000000001
sg27
I64
sg28
I00
sbag3
(g4
g5
NtRp129
(dp130
g8
I00
sg9
I10
sg10
I0
sg11
I01
sg12
I0
sg13
I00
sg14
I0
sg15
I1
sg16
I00
sg17
S'img/Somyeols/CrippleSomyeol_small_0.png'
p131
sg19
I32
sg20
I25
sg21
F10.25
sg22
I01
sg23
(lp132
g131
aS'img/Somyeols/CrippleSomyeol_small_1.png'
p133
asS'y'
I-417
sS'x'
I298
sg26
F0.20000000000000001
sg27
I64
sg28
I00
sbag3
(g4
g5
NtRp134
(dp135
g8
I00
sg9
I10
sg10
I0
sg11
I01
sg12
I0
sg13
I00
sg14
I0
sg15
I1
sg16
I00
sg17
S'img/Somyeols/CrippleSomyeol_small_0.png'
p136
sg19
I32
sg20
I25
sg21
F10.25
sg22
I01
sg23
(lp137
g136
aS'img/Somyeols/CrippleSomyeol_small_1.png'
p138
asS'y'
I-418
sS'x'
I295
sg26
F0.20000000000000001
sg27
I64
sg28
I00
sbag3
(g4
g5
NtRp139
(dp140
g8
I00
sg9
I10
sg10
I0
sg11
I01
sg12
I0
sg13
I00
sg14
I0
sg15
I1
sg16
I00
sg17
S'img/Somyeols/CrippleSomyeol_small_0.png'
p141
sg19
I32
sg20
I25
sg21
F10.25
sg22
I01
sg23
(lp142
g141
aS'img/Somyeols/CrippleSomyeol_small_1.png'
p143
asS'y'
I-424
sS'x'
I289
sg26
F0.20000000000000001
sg27
I64
sg28
I00
sbag3
(g4
g5
NtRp144
(dp145
g8
I00
sg9
I10
sg10
I0
sg11
I01
sg12
I0
sg13
I00
sg14
I0
sg15
I1
sg16
I00
sg17
S'img/Somyeols/CrippleSomyeol_small_0.png'
p146
sg19
I32
sg20
I25
sg21
F10.25
sg22
I01
sg23
(lp147
g146
aS'img/Somyeols/CrippleSomyeol_small_1.png'
p148
asS'y'
I-414
sS'x'
I279
sg26
F0.20000000000000001
sg27
I64
sg28
I00
sbag3
(g4
g5
NtRp149
(dp150
g8
I00
sg9
I10
sg10
I0
sg11
I01
sg12
I0
sg13
I00
sg14
I0
sg15
I1
sg16
I00
sg17
S'img/Somyeols/CrippleSomyeol_small_0.png'
p151
sg19
I32
sg20
I25
sg21
F10.25
sg22
I01
sg23
(lp152
g151
aS'img/Somyeols/CrippleSomyeol_small_1.png'
p153
asS'y'
I-421
sS'x'
I298
sg26
F0.20000000000000001
sg27
I64
sg28
I00
sbag3
(g4
g5
NtRp154
(dp155
g8
I00
sg9
I10
sg10
I0
sg11
I01
sg12
I0
sg13
I00
sg14
I0
sg15
I1
sg16
I00
sg17
S'img/Somyeols/CrippleSomyeol_small_0.png'
p156
sg19
I32
sg20
I25
sg21
F10.25
sg22
I01
sg23
(lp157
g156
aS'img/Somyeols/CrippleSomyeol_small_1.png'
p158
asS'y'
I-416
sS'x'
I294
sg26
F0.20000000000000001
sg27
I64
sg28
I00
sbag3
(g4
g5
NtRp159
(dp160
g8
I00
sg9
I10
sg10
I0
sg11
I01
sg12
I0
sg13
I00
sg14
I0
sg15
I1
sg16
I00
sg17
S'img/Somyeols/CrippleSomyeol_small_0.png'
p161
sg19
I32
sg20
I25
sg21
F10.25
sg22
I01
sg23
(lp162
g161
aS'img/Somyeols/CrippleSomyeol_small_1.png'
p163
asS'y'
I-423
sS'x'
I286
sg26
F0.20000000000000001
sg27
I64
sg28
I00
sbag3
(g4
g5
NtRp164
(dp165
g8
I00
sg9
I10
sg10
I0
sg11
I01
sg12
I0
sg13
I00
sg14
I0
sg15
I1
sg16
I00
sg17
S'img/Somyeols/CrippleSomyeol_small_0.png'
p166
sg19
I32
sg20
I25
sg21
F10.25
sg22
I01
sg23
(lp167
g166
aS'img/Somyeols/CrippleSomyeol_small_1.png'
p168
asS'y'
I-414
sS'x'
I285
sg26
F0.20000000000000001
sg27
I64
sg28
I00
sbag3
(g4
g5
NtRp169
(dp170
g8
I00
sg9
I10
sg10
I0
sg11
I01
sg12
I0
sg13
I00
sg14
I0
sg15
I1
sg16
I00
sg17
S'img/Somyeols/CrippleSomyeol_small_0.png'
p171
sg19
I32
sg20
I25
sg21
F10.25
sg22
I01
sg23
(lp172
g171
aS'img/Somyeols/CrippleSomyeol_small_1.png'
p173
asS'y'
I-423
sS'x'
I294
sg26
F0.20000000000000001
sg27
I64
sg28
I00
sbag3
(g4
g5
NtRp174
(dp175
g8
I00
sg9
I10
sg10
I0
sg11
I01
sg12
I0
sg13
I00
sg14
I0
sg15
I1
sg16
I00
sg17
S'img/Somyeols/CrippleSomyeol_small_0.png'
p176
sg19
I32
sg20
I25
sg21
F10.25
sg22
I01
sg23
(lp177
g176
aS'img/Somyeols/CrippleSomyeol_small_1.png'
p178
asS'y'
I-427
sS'x'
I322
sg26
F0.20000000000000001
sg27
I64
sg28
I00
sbag3
(g4
g5
NtRp179
(dp180
g8
I00
sg9
I10
sg10
I0
sg11
I01
sg12
I0
sg13
I00
sg14
I0
sg15
I1
sg16
I00
sg17
S'img/Somyeols/CrippleSomyeol_small_0.png'
p181
sg19
I32
sg20
I25
sg21
F10.25
sg22
I01
sg23
(lp182
g181
aS'img/Somyeols/CrippleSomyeol_small_1.png'
p183
asS'y'
I-412
sS'x'
I318
sg26
F0.20000000000000001
sg27
I64
sg28
I00
sbag3
(g4
g5
NtRp184
(dp185
g8
I00
sg9
I10
sg10
I0
sg11
I01
sg12
I0
sg13
I00
sg14
I0
sg15
I1
sg16
I00
sg17
S'img/Somyeols/CrippleSomyeol_small_0.png'
p186
sg19
I32
sg20
I25
sg21
F10.25
sg22
I01
sg23
(lp187
g186
aS'img/Somyeols/CrippleSomyeol_small_1.png'
p188
asS'y'
I-416
sS'x'
I328
sg26
F0.20000000000000001
sg27
I64
sg28
I00
sbag3
(g4
g5
NtRp189
(dp190
g8
I00
sg9
I10
sg10
I0
sg11
I01
sg12
I0
sg13
I00
sg14
I0
sg15
I1
sg16
I00
sg17
S'img/Somyeols/CrippleSomyeol_small_0.png'
p191
sg19
I32
sg20
I25
sg21
F10.25
sg22
I01
sg23
(lp192
g191
aS'img/Somyeols/CrippleSomyeol_small_1.png'
p193
asS'y'
I-428
sS'x'
I322
sg26
F0.20000000000000001
sg27
I64
sg28
I00
sbag3
(g4
g5
NtRp194
(dp195
g8
I00
sg9
I10
sg10
I0
sg11
I01
sg12
I0
sg13
I00
sg14
I0
sg15
I1
sg16
I00
sg17
S'img/Somyeols/CrippleSomyeol_small_0.png'
p196
sg19
I32
sg20
I25
sg21
F10.25
sg22
I01
sg23
(lp197
g196
aS'img/Somyeols/CrippleSomyeol_small_1.png'
p198
asS'y'
I-417
sS'x'
I330
sg26
F0.20000000000000001
sg27
I64
sg28
I00
sbag3
(g4
g5
NtRp199
(dp200
g8
I00
sg9
I10
sg10
I0
sg11
I01
sg12
I0
sg13
I00
sg14
I0
sg15
I1
sg16
I00
sg17
S'img/Somyeols/CrippleSomyeol_small_0.png'
p201
sg19
I32
sg20
I25
sg21
F10.25
sg22
I01
sg23
(lp202
g201
aS'img/Somyeols/CrippleSomyeol_small_1.png'
p203
asS'y'
I-421
sS'x'
I320
sg26
F0.20000000000000001
sg27
I64
sg28
I00
sbag3
(g4
g5
NtRp204
(dp205
g8
I00
sg9
I10
sg10
I0
sg11
I01
sg12
I0
sg13
I00
sg14
I0
sg15
I1
sg16
I00
sg17
S'img/Somyeols/CrippleSomyeol_small_0.png'
p206
sg19
I32
sg20
I25
sg21
F10.25
sg22
I01
sg23
(lp207
g206
aS'img/Somyeols/CrippleSomyeol_small_1.png'
p208
asS'y'
I-422
sS'x'
I315
sg26
F0.20000000000000001
sg27
I64
sg28
I00
sbag3
(g4
g5
NtRp209
(dp210
g8
I00
sg9
I10
sg10
I0
sg11
I01
sg12
I0
sg13
I00
sg14
I0
sg15
I1
sg16
I00
sg17
S'img/Somyeols/CrippleSomyeol_small_0.png'
p211
sg19
I32
sg20
I25
sg21
F10.25
sg22
I01
sg23
(lp212
g211
aS'img/Somyeols/CrippleSomyeol_small_1.png'
p213
asS'y'
I-428
sS'x'
I313
sg26
F0.20000000000000001
sg27
I64
sg28
I00
sbag3
(g4
g5
NtRp214
(dp215
g8
I00
sg9
I10
sg10
I0
sg11
I01
sg12
I0
sg13
I00
sg14
I0
sg15
I1
sg16
I00
sg17
S'img/Somyeols/CrippleSomyeol_small_0.png'
p216
sg19
I32
sg20
I25
sg21
F10.25
sg22
I01
sg23
(lp217
g216
aS'img/Somyeols/CrippleSomyeol_small_1.png'
p218
asS'y'
I-411
sS'x'
I318
sg26
F0.20000000000000001
sg27
I64
sg28
I00
sbag3
(g4
g5
NtRp219
(dp220
g8
I00
sg9
I10
sg10
I0
sg11
I01
sg12
I0
sg13
I00
sg14
I0
sg15
I1
sg16
I00
sg17
S'img/Somyeols/CrippleSomyeol_small_0.png'
p221
sg19
I32
sg20
I25
sg21
F10.25
sg22
I01
sg23
(lp222
g221
aS'img/Somyeols/CrippleSomyeol_small_1.png'
p223
asS'y'
I-411
sS'x'
I310
sg26
F0.20000000000000001
sg27
I64
sg28
I00
sbag3
(g4
g5
NtRp224
(dp225
g8
I00
sg9
I10
sg10
I0
sg11
I01
sg12
I0
sg13
I00
sg14
I0
sg15
I1
sg16
I00
sg17
S'img/Somyeols/CrippleSomyeol_small_0.png'
p226
sg19
I32
sg20
I25
sg21
F10.25
sg22
I01
sg23
(lp227
g226
aS'img/Somyeols/CrippleSomyeol_small_1.png'
p228
asS'y'
I-412
sS'x'
I377
sg26
F0.20000000000000001
sg27
I64
sg28
I00
sbag3
(g4
g5
NtRp229
(dp230
g8
I00
sg9
I10
sg10
I0
sg11
I01
sg12
I0
sg13
I00
sg14
I0
sg15
I1
sg16
I00
sg17
S'img/Somyeols/CrippleSomyeol_small_0.png'
p231
sg19
I32
sg20
I25
sg21
F10.25
sg22
I01
sg23
(lp232
g231
aS'img/Somyeols/CrippleSomyeol_small_1.png'
p233
asS'y'
I-409
sS'x'
I393
sg26
F0.20000000000000001
sg27
I64
sg28
I00
sbag3
(g4
g5
NtRp234
(dp235
g8
I00
sg9
I10
sg10
I0
sg11
I01
sg12
I0
sg13
I00
sg14
I0
sg15
I1
sg16
I00
sg17
S'img/Somyeols/CrippleSomyeol_small_0.png'
p236
sg19
I32
sg20
I25
sg21
F10.25
sg22
I01
sg23
(lp237
g236
aS'img/Somyeols/CrippleSomyeol_small_1.png'
p238
asS'y'
I-425
sS'x'
I374
sg26
F0.20000000000000001
sg27
I64
sg28
I00
sbag3
(g4
g5
NtRp239
(dp240
g8
I00
sg9
I10
sg10
I0
sg11
I01
sg12
I0
sg13
I00
sg14
I0
sg15
I1
sg16
I00
sg17
S'img/Somyeols/CrippleSomyeol_small_0.png'
p241
sg19
I32
sg20
I25
sg21
F10.25
sg22
I01
sg23
(lp242
g241
aS'img/Somyeols/CrippleSomyeol_small_1.png'
p243
asS'y'
I-426
sS'x'
I379
sg26
F0.20000000000000001
sg27
I64
sg28
I00
sbag3
(g4
g5
NtRp244
(dp245
g8
I00
sg9
I10
sg10
I0
sg11
I01
sg12
I0
sg13
I00
sg14
I0
sg15
I1
sg16
I00
sg17
S'img/Somyeols/CrippleSomyeol_small_0.png'
p246
sg19
I32
sg20
I25
sg21
F10.25
sg22
I01
sg23
(lp247
g246
aS'img/Somyeols/CrippleSomyeol_small_1.png'
p248
asS'y'
I-426
sS'x'
I374
sg26
F0.20000000000000001
sg27
I64
sg28
I00
sbag3
(g4
g5
NtRp249
(dp250
g8
I00
sg9
I10
sg10
I0
sg11
I01
sg12
I0
sg13
I00
sg14
I0
sg15
I1
sg16
I00
sg17
S'img/Somyeols/CrippleSomyeol_small_0.png'
p251
sg19
I32
sg20
I25
sg21
F10.25
sg22
I01
sg23
(lp252
g251
aS'img/Somyeols/CrippleSomyeol_small_1.png'
p253
asS'y'
I-408
sS'x'
I380
sg26
F0.20000000000000001
sg27
I64
sg28
I00
sbag3
(g4
g5
NtRp254
(dp255
g8
I00
sg9
I10
sg10
I0
sg11
I01
sg12
I0
sg13
I00
sg14
I0
sg15
I1
sg16
I00
sg17
S'img/Somyeols/CrippleSomyeol_small_0.png'
p256
sg19
I32
sg20
I25
sg21
F10.25
sg22
I01
sg23
(lp257
g256
aS'img/Somyeols/CrippleSomyeol_small_1.png'
p258
asS'y'
I-417
sS'x'
I382
sg26
F0.20000000000000001
sg27
I64
sg28
I00
sbag3
(g4
g5
NtRp259
(dp260
g8
I00
sg9
I10
sg10
I0
sg11
I01
sg12
I0
sg13
I00
sg14
I0
sg15
I1
sg16
I00
sg17
S'img/Somyeols/CrippleSomyeol_small_0.png'
p261
sg19
I32
sg20
I25
sg21
F10.25
sg22
I01
sg23
(lp262
g261
aS'img/Somyeols/CrippleSomyeol_small_1.png'
p263
asS'y'
I-420
sS'x'
I386
sg26
F0.20000000000000001
sg27
I64
sg28
I00
sbag3
(g4
g5
NtRp264
(dp265
g8
I00
sg9
I10
sg10
I0
sg11
I01
sg12
I0
sg13
I00
sg14
I0
sg15
I1
sg16
I00
sg17
S'img/Somyeols/CrippleSomyeol_small_0.png'
p266
sg19
I32
sg20
I25
sg21
F10.25
sg22
I01
sg23
(lp267
g266
aS'img/Somyeols/CrippleSomyeol_small_1.png'
p268
asS'y'
I-414
sS'x'
I380
sg26
F0.20000000000000001
sg27
I64
sg28
I00
sbag3
(g4
g5
NtRp269
(dp270
g8
I00
sg9
I10
sg10
I0
sg11
I01
sg12
I0
sg13
I00
sg14
I0
sg15
I1
sg16
I00
sg17
S'img/Somyeols/CrippleSomyeol_small_0.png'
p271
sg19
I32
sg20
I25
sg21
F10.25
sg22
I01
sg23
(lp272
g271
aS'img/Somyeols/CrippleSomyeol_small_1.png'
p273
asS'y'
I-421
sS'x'
I389
sg26
F0.20000000000000001
sg27
I64
sg28
I00
sbaa(lp274
g3
(cGameObjects
Box
p275
g5
NtRp276
(dp277
g10
I0
sg12
I0
sg27
I32
sg19
I320
sS'y'
I-320
sS'x'
I160
sbag3
(g275
g5
NtRp278
(dp279
g10
I0
sg12
I0
sg27
I32
sg19
I320
sS'y'
I-192
sS'x'
I352
sbag3
(g275
g5
NtRp280
(dp281
g10
I0
sg12
I0
sg27
I32
sg19
I320
sS'y'
I-64
sS'x'
I160
sbag3
(g275
g5
NtRp282
(dp283
g10
I0
sg12
I0
sg27
I32
sg19
I192
sS'y'
I-64
sS'x'
I608
sbag3
(cGameObjects
Lock
p284
g5
NtRp285
(dp286
S'y'
I-64
sS'x'
I480
sg27
I32
sS'img'
p287
S'img/World/lock.png'
p288
sg19
I32
sbag3
(g284
g5
NtRp289
(dp290
S'y'
I-64
sS'x'
I576
sg27
I32
sg287
S'img/World/lock.png'
p291
sg19
I32
sbag3
(g284
g5
NtRp292
(dp293
S'y'
I-64
sS'x'
I544
sg27
I32
sg287
S'img/World/lock.png'
p294
sg19
I32
sbag3
(g284
g5
NtRp295
(dp296
S'y'
I-64
sS'x'
I512
sg27
I32
sg287
S'img/World/lock.png'
p297
sg19
I32
sbag3
(g275
g5
NtRp298
(dp299
g10
I0
sg12
I0
sg27
I32
sg19
I128
sS'y'
I96
sS'x'
I480
sbag3
(g275
g5
NtRp300
(dp301
g10
I0
sg12
I0
sg27
I32
sg19
I192
sS'y'
I224
sS'x'
I288
sbag3
(g275
g5
NtRp302
(dp303
g10
I0
sg12
I0
sg27
I32
sg19
I160
sS'y'
I224
sS'x'
I608
sbag3
(g275
g5
NtRp304
(dp305
g10
I0
sg12
I0
sg27
I288
sg19
I32
sS'y'
I-32
sS'x'
I768
sbag3
(g275
g5
NtRp306
(dp307
g10
I0
sg12
I0
sg27
I32
sg19
I224
sS'y'
I352
sS'x'
I128
sbag3
(g275
g5
NtRp308
(dp309
g10
I0
sg12
I0
sg27
I32
sg19
I96
sS'y'
I512
sS'x'
I480
sbag3
(g275
g5
NtRp310
(dp311
g10
I0
sg12
I0
sg27
I32
sg19
I96
sS'y'
I512
sS'x'
I608
sbag3
(g275
g5
NtRp312
(dp313
g10
I0
sg12
I0
sg27
I32
sg19
I96
sS'y'
I512
sS'x'
I736
sbag3
(cGameObjects
Spike
p314
g5
NtRp315
(dp316
S'y'
I256
sS'x'
I512
sg27
I16
sg287
S'img/World/spike.png'
p317
sg19
I32
sbag3
(g314
g5
NtRp318
(dp319
S'y'
I256
sS'x'
I576
sg27
I16
sg287
S'img/World/spike.png'
p320
sg19
I32
sbag3
(cGameObjects
Firetrap
p321
g5
NtRp322
(dp323
S'y'
I-32
sS'x'
I480
sS'particles'
p324
(lp325
sS'active'
p326
I01
sS'countdown'
p327
I100
sbag3
(g321
g5
NtRp328
(dp329
S'y'
I-32
sS'x'
I512
sg324
(lp330
sg326
I01
sg327
I100
sbag3
(g321
g5
NtRp331
(dp332
S'y'
I-32
sS'x'
I544
sg324
(lp333
sg326
I01
sg327
I100
sbag3
(g321
g5
NtRp334
(dp335
S'y'
I-32
sS'x'
I576
sg324
(lp336
sg326
I01
sg327
I100
sbag3
(g321
g5
NtRp337
(dp338
S'y'
I416
sS'x'
I576
sg324
(lp339
sg326
I01
sg327
I100
sbag3
(g321
g5
NtRp340
(dp341
S'y'
I416
sS'x'
I704
sg324
(lp342
sg326
I01
sg327
I100
sbag3
(g321
g5
NtRp343
(dp344
S'y'
I416
sS'x'
I832
sg324
(lp345
sg326
I01
sg327
I100
sbag3
(g321
g5
NtRp346
(dp347
S'y'
I416
sS'x'
I448
sg324
(lp348
sg326
I01
sg327
I100
sbag3
(cGameObjects
Key
p349
g5
NtRp350
(dp351
S'y'
I-96
sS'x'
I768
sg27
I32
sg287
S'img/World/key.png'
p352
sg19
I32
sbag3
(g314
g5
NtRp353
(dp354
S'y'
I256
sS'x'
I960
sg27
I16
sg287
S'img/World/spike.png'
p355
sg19
I32
sbag3
(g314
g5
NtRp356
(dp357
S'y'
I256
sS'x'
I1024
sg27
I16
sg287
S'img/World/spike.png'
p358
sg19
I32
sbag3
(g314
g5
NtRp359
(dp360
S'y'
I256
sS'x'
I1088
sg27
I16
sg287
S'img/World/spike.png'
p361
sg19
I32
sbag3
(g314
g5
NtRp362
(dp363
S'y'
I-192
sS'x'
I768
sg27
I16
sg287
S'img/World/spike.png'
p364
sg19
I32
sbag3
(g314
g5
NtRp365
(dp366
S'y'
I256
sS'x'
I896
sg27
I16
sg287
S'img/World/spike.png'
p367
sg19
I32
sbag3
(g314
g5
NtRp368
(dp369
S'y'
I256
sS'x'
I832
sg27
I16
sg287
S'img/World/spike.png'
p370
sg19
I32
sbag3
(g314
g5
NtRp371
(dp372
S'y'
I-192
sS'x'
I704
sg27
I16
sg287
S'img/World/spike.png'
p373
sg19
I32
sbag3
(g284
g5
NtRp374
(dp375
S'y'
I480
sS'x'
I1088
sg27
I32
sg287
S'img/World/lock.png'
p376
sg19
I32
sbag3
(g275
g5
NtRp377
(dp378
g10
I0
sg12
I0
sg27
I32
sg19
I544
sS'y'
I512
sS'x'
I864
sbag3
(cGameObjects
Goal
p379
g5
NtRp380
(dp381
S'y'
I352
sS'x'
I1248
sg27
I160
sg287
S'img/World/goal.png'
p382
sg19
I160
sbag3
(g314
g5
NtRp383
(dp384
S'y'
I256
sS'x'
I1152
sg27
I16
sg287
S'img/World/spike.png'
p385
sg19
I32
sbag3
(g314
g5
NtRp386
(dp387
S'y'
I256
sS'x'
I1216
sg27
I16
sg287
S'img/World/spike.png'
p388
sg19
I32
sbag3
(g314
g5
NtRp389
(dp390
S'y'
I256
sS'x'
I1280
sg27
I16
sg287
S'img/World/spike.png'
p391
sg19
I32
sbaa(lp392
a.