(lp1
(lp2
ccopy_reg
_reconstructor
p3
(cSomyeol
FatSomyeol
p4
c__builtin__
object
p5
NtRp6
(dp7
S'hasKey'
p8
I00
sS'animationCnt'
p9
I10
sS'yspeed'
p10
I0
sS'nonstopJump'
p11
I01
sS'xspeed'
p12
I0
sS'canJump'
p13
I00
sS'currentFile'
p14
I0
sS'breathFactor'
p15
I1
sS'dead'
p16
I00
sS'filename'
p17
S'img/Somyeols/FatSomyeol_small_0.png'
p18
sS'width'
p19
I32
sS'points'
p20
I50
sS'jumpSpeed'
p21
I6
sS'breathIn'
p22
I01
sS'filenames'
p23
(lp24
g18
aS'img/Somyeols/FatSomyeol_small_1.png'
p25
asS'y'
I189
sS'x'
I226
sS'moveSpeed'
p26
F0.10000000000000001
sS'height'
p27
I64
sS'inverted'
p28
I00
sbag3
(g4
g5
NtRp29
(dp30
g8
I00
sg9
I10
sg10
I0
sg11
I01
sg12
I0
sg13
I00
sg14
I0
sg15
I1
sg16
I00
sg17
S'img/Somyeols/FatSomyeol_small_0.png'
p31
sg19
I32
sg20
I50
sg21
I6
sg22
I01
sg23
(lp32
g31
aS'img/Somyeols/FatSomyeol_small_1.png'
p33
asS'y'
I185
sS'x'
I220
sg26
F0.10000000000000001
sg27
I64
sg28
I00
sbag3
(g4
g5
NtRp34
(dp35
g8
I00
sg9
I10
sg10
I0
sg11
I01
sg12
I0
sg13
I00
sg14
I0
sg15
I1
sg16
I00
sg17
S'img/Somyeols/FatSomyeol_small_0.png'
p36
sg19
I32
sg20
I50
sg21
I6
sg22
I01
sg23
(lp37
g36
aS'img/Somyeols/FatSomyeol_small_1.png'
p38
asS'y'
I191
sS'x'
I222
sg26
F0.10000000000000001
sg27
I64
sg28
I00
sbag3
(g4
g5
NtRp39
(dp40
g8
I00
sg9
I10
sg10
I0
sg11
I01
sg12
I0
sg13
I00
sg14
I0
sg15
I1
sg16
I00
sg17
S'img/Somyeols/FatSomyeol_small_0.png'
p41
sg19
I32
sg20
I50
sg21
I6
sg22
I01
sg23
(lp42
g41
aS'img/Somyeols/FatSomyeol_small_1.png'
p43
asS'y'
I191
sS'x'
I225
sg26
F0.10000000000000001
sg27
I64
sg28
I00
sbag3
(g4
g5
NtRp44
(dp45
g8
I00
sg9
I10
sg10
I0
sg11
I01
sg12
I0
sg13
I00
sg14
I0
sg15
I1
sg16
I00
sg17
S'img/Somyeols/FatSomyeol_small_0.png'
p46
sg19
I32
sg20
I50
sg21
I6
sg22
I01
sg23
(lp47
g46
aS'img/Somyeols/FatSomyeol_small_1.png'
p48
asS'y'
I192
sS'x'
I214
sg26
F0.10000000000000001
sg27
I64
sg28
I00
sbag3
(g4
g5
NtRp49
(dp50
g8
I00
sg9
I10
sg10
I0
sg11
I01
sg12
I0
sg13
I00
sg14
I0
sg15
I1
sg16
I00
sg17
S'img/Somyeols/FatSomyeol_small_0.png'
p51
sg19
I32
sg20
I50
sg21
I6
sg22
I01
sg23
(lp52
g51
aS'img/Somyeols/FatSomyeol_small_1.png'
p53
asS'y'
I183
sS'x'
I227
sg26
F0.10000000000000001
sg27
I64
sg28
I00
sbag3
(g4
g5
NtRp54
(dp55
g8
I00
sg9
I10
sg10
I0
sg11
I01
sg12
I0
sg13
I00
sg14
I0
sg15
I1
sg16
I00
sg17
S'img/Somyeols/FatSomyeol_small_0.png'
p56
sg19
I32
sg20
I50
sg21
I6
sg22
I01
sg23
(lp57
g56
aS'img/Somyeols/FatSomyeol_small_1.png'
p58
asS'y'
I185
sS'x'
I222
sg26
F0.10000000000000001
sg27
I64
sg28
I00
sbag3
(g4
g5
NtRp59
(dp60
g8
I00
sg9
I10
sg10
I0
sg11
I01
sg12
I0
sg13
I00
sg14
I0
sg15
I1
sg16
I00
sg17
S'img/Somyeols/FatSomyeol_small_0.png'
p61
sg19
I32
sg20
I50
sg21
I6
sg22
I01
sg23
(lp62
g61
aS'img/Somyeols/FatSomyeol_small_1.png'
p63
asS'y'
I185
sS'x'
I230
sg26
F0.10000000000000001
sg27
I64
sg28
I00
sbag3
(g4
g5
NtRp64
(dp65
g8
I00
sg9
I10
sg10
I0
sg11
I01
sg12
I0
sg13
I00
sg14
I0
sg15
I1
sg16
I00
sg17
S'img/Somyeols/FatSomyeol_small_0.png'
p66
sg19
I32
sg20
I50
sg21
I6
sg22
I01
sg23
(lp67
g66
aS'img/Somyeols/FatSomyeol_small_1.png'
p68
asS'y'
I189
sS'x'
I216
sg26
F0.10000000000000001
sg27
I64
sg28
I00
sbag3
(g4
g5
NtRp69
(dp70
g8
I00
sg9
I10
sg10
I0
sg11
I01
sg12
I0
sg13
I00
sg14
I0
sg15
I1
sg16
I00
sg17
S'img/Somyeols/FatSomyeol_small_0.png'
p71
sg19
I32
sg20
I50
sg21
I6
sg22
I01
sg23
(lp72
g71
aS'img/Somyeols/FatSomyeol_small_1.png'
p73
asS'y'
I187
sS'x'
I224
sg26
F0.10000000000000001
sg27
I64
sg28
I00
sbag3
(g4
g5
NtRp74
(dp75
g8
I00
sg9
I10
sg10
I0
sg11
I01
sg12
I0
sg13
I00
sg14
I0
sg15
I1
sg16
I00
sg17
S'img/Somyeols/FatSomyeol_small_0.png'
p76
sg19
I32
sg20
I50
sg21
I6
sg22
I01
sg23
(lp77
g76
aS'img/Somyeols/FatSomyeol_small_1.png'
p78
asS'y'
I184
sS'x'
I260
sg26
F0.10000000000000001
sg27
I64
sg28
I00
sbag3
(g4
g5
NtRp79
(dp80
g8
I00
sg9
I10
sg10
I0
sg11
I01
sg12
I0
sg13
I00
sg14
I0
sg15
I1
sg16
I00
sg17
S'img/Somyeols/FatSomyeol_small_0.png'
p81
sg19
I32
sg20
I50
sg21
I6
sg22
I01
sg23
(lp82
g81
aS'img/Somyeols/FatSomyeol_small_1.png'
p83
asS'y'
I191
sS'x'
I258
sg26
F0.10000000000000001
sg27
I64
sg28
I00
sbag3
(g4
g5
NtRp84
(dp85
g8
I00
sg9
I10
sg10
I0
sg11
I01
sg12
I0
sg13
I00
sg14
I0
sg15
I1
sg16
I00
sg17
S'img/Somyeols/FatSomyeol_small_0.png'
p86
sg19
I32
sg20
I50
sg21
I6
sg22
I01
sg23
(lp87
g86
aS'img/Somyeols/FatSomyeol_small_1.png'
p88
asS'y'
I187
sS'x'
I256
sg26
F0.10000000000000001
sg27
I64
sg28
I00
sbag3
(g4
g5
NtRp89
(dp90
g8
I00
sg9
I10
sg10
I0
sg11
I01
sg12
I0
sg13
I00
sg14
I0
sg15
I1
sg16
I00
sg17
S'img/Somyeols/FatSomyeol_small_0.png'
p91
sg19
I32
sg20
I50
sg21
I6
sg22
I01
sg23
(lp92
g91
aS'img/Somyeols/FatSomyeol_small_1.png'
p93
asS'y'
I196
sS'x'
I260
sg26
F0.10000000000000001
sg27
I64
sg28
I00
sbag3
(g4
g5
NtRp94
(dp95
g8
I00
sg9
I10
sg10
I0
sg11
I01
sg12
I0
sg13
I00
sg14
I0
sg15
I1
sg16
I00
sg17
S'img/Somyeols/FatSomyeol_small_0.png'
p96
sg19
I32
sg20
I50
sg21
I6
sg22
I01
sg23
(lp97
g96
aS'img/Somyeols/FatSomyeol_small_1.png'
p98
asS'y'
I199
sS'x'
I251
sg26
F0.10000000000000001
sg27
I64
sg28
I00
sbag3
(g4
g5
NtRp99
(dp100
g8
I00
sg9
I10
sg10
I0
sg11
I01
sg12
I0
sg13
I00
sg14
I0
sg15
I1
sg16
I00
sg17
S'img/Somyeols/FatSomyeol_small_0.png'
p101
sg19
I32
sg20
I50
sg21
I6
sg22
I01
sg23
(lp102
g101
aS'img/Somyeols/FatSomyeol_small_1.png'
p103
asS'y'
I190
sS'x'
I252
sg26
F0.10000000000000001
sg27
I64
sg28
I00
sbag3
(g4
g5
NtRp104
(dp105
g8
I00
sg9
I10
sg10
I0
sg11
I01
sg12
I0
sg13
I00
sg14
I0
sg15
I1
sg16
I00
sg17
S'img/Somyeols/FatSomyeol_small_0.png'
p106
sg19
I32
sg20
I50
sg21
I6
sg22
I01
sg23
(lp107
g106
aS'img/Somyeols/FatSomyeol_small_1.png'
p108
asS'y'
I191
sS'x'
I253
sg26
F0.10000000000000001
sg27
I64
sg28
I00
sbag3
(g4
g5
NtRp109
(dp110
g8
I00
sg9
I10
sg10
I0
sg11
I01
sg12
I0
sg13
I00
sg14
I0
sg15
I1
sg16
I00
sg17
S'img/Somyeols/FatSomyeol_small_0.png'
p111
sg19
I32
sg20
I50
sg21
I6
sg22
I01
sg23
(lp112
g111
aS'img/Somyeols/FatSomyeol_small_1.png'
p113
asS'y'
I197
sS'x'
I258
sg26
F0.10000000000000001
sg27
I64
sg28
I00
sbag3
(g4
g5
NtRp114
(dp115
g8
I00
sg9
I10
sg10
I0
sg11
I01
sg12
I0
sg13
I00
sg14
I0
sg15
I1
sg16
I00
sg17
S'img/Somyeols/FatSomyeol_small_0.png'
p116
sg19
I32
sg20
I50
sg21
I6
sg22
I01
sg23
(lp117
g116
aS'img/Somyeols/FatSomyeol_small_1.png'
p118
asS'y'
I198
sS'x'
I254
sg26
F0.10000000000000001
sg27
I64
sg28
I00
sbag3
(g4
g5
NtRp119
(dp120
g8
I00
sg9
I10
sg10
I0
sg11
I01
sg12
I0
sg13
I00
sg14
I0
sg15
I1
sg16
I00
sg17
S'img/Somyeols/FatSomyeol_small_0.png'
p121
sg19
I32
sg20
I50
sg21
I6
sg22
I01
sg23
(lp122
g121
aS'img/Somyeols/FatSomyeol_small_1.png'
p123
asS'y'
I186
sS'x'
I260
sg26
F0.10000000000000001
sg27
I64
sg28
I00
sbag3
(g4
g5
NtRp124
(dp125
g8
I00
sg9
I10
sg10
I0
sg11
I01
sg12
I0
sg13
I00
sg14
I0
sg15
I1
sg16
I00
sg17
S'img/Somyeols/FatSomyeol_small_0.png'
p126
sg19
I32
sg20
I50
sg21
I6
sg22
I01
sg23
(lp127
g126
aS'img/Somyeols/FatSomyeol_small_1.png'
p128
asS'y'
I196
sS'x'
I287
sg26
F0.10000000000000001
sg27
I64
sg28
I00
sbag3
(g4
g5
NtRp129
(dp130
g8
I00
sg9
I10
sg10
I0
sg11
I01
sg12
I0
sg13
I00
sg14
I0
sg15
I1
sg16
I00
sg17
S'img/Somyeols/FatSomyeol_small_0.png'
p131
sg19
I32
sg20
I50
sg21
I6
sg22
I01
sg23
(lp132
g131
aS'img/Somyeols/FatSomyeol_small_1.png'
p133
asS'y'
I189
sS'x'
I287
sg26
F0.10000000000000001
sg27
I64
sg28
I00
sbag3
(g4
g5
NtRp134
(dp135
g8
I00
sg9
I10
sg10
I0
sg11
I01
sg12
I0
sg13
I00
sg14
I0
sg15
I1
sg16
I00
sg17
S'img/Somyeols/FatSomyeol_small_0.png'
p136
sg19
I32
sg20
I50
sg21
I6
sg22
I01
sg23
(lp137
g136
aS'img/Somyeols/FatSomyeol_small_1.png'
p138
asS'y'
I199
sS'x'
I284
sg26
F0.10000000000000001
sg27
I64
sg28
I00
sbag3
(g4
g5
NtRp139
(dp140
g8
I00
sg9
I10
sg10
I0
sg11
I01
sg12
I0
sg13
I00
sg14
I0
sg15
I1
sg16
I00
sg17
S'img/Somyeols/FatSomyeol_small_0.png'
p141
sg19
I32
sg20
I50
sg21
I6
sg22
I01
sg23
(lp142
g141
aS'img/Somyeols/FatSomyeol_small_1.png'
p143
asS'y'
I199
sS'x'
I285
sg26
F0.10000000000000001
sg27
I64
sg28
I00
sbag3
(g4
g5
NtRp144
(dp145
g8
I00
sg9
I10
sg10
I0
sg11
I01
sg12
I0
sg13
I00
sg14
I0
sg15
I1
sg16
I00
sg17
S'img/Somyeols/FatSomyeol_small_0.png'
p146
sg19
I32
sg20
I50
sg21
I6
sg22
I01
sg23
(lp147
g146
aS'img/Somyeols/FatSomyeol_small_1.png'
p148
asS'y'
I198
sS'x'
I295
sg26
F0.10000000000000001
sg27
I64
sg28
I00
sbag3
(g4
g5
NtRp149
(dp150
g8
I00
sg9
I10
sg10
I0
sg11
I01
sg12
I0
sg13
I00
sg14
I0
sg15
I1
sg16
I00
sg17
S'img/Somyeols/FatSomyeol_small_0.png'
p151
sg19
I32
sg20
I50
sg21
I6
sg22
I01
sg23
(lp152
g151
aS'img/Somyeols/FatSomyeol_small_1.png'
p153
asS'y'
I199
sS'x'
I282
sg26
F0.10000000000000001
sg27
I64
sg28
I00
sbag3
(g4
g5
NtRp154
(dp155
g8
I00
sg9
I10
sg10
I0
sg11
I01
sg12
I0
sg13
I00
sg14
I0
sg15
I1
sg16
I00
sg17
S'img/Somyeols/FatSomyeol_small_0.png'
p156
sg19
I32
sg20
I50
sg21
I6
sg22
I01
sg23
(lp157
g156
aS'img/Somyeols/FatSomyeol_small_1.png'
p158
asS'y'
I191
sS'x'
I287
sg26
F0.10000000000000001
sg27
I64
sg28
I00
sbag3
(g4
g5
NtRp159
(dp160
g8
I00
sg9
I10
sg10
I0
sg11
I01
sg12
I0
sg13
I00
sg14
I0
sg15
I1
sg16
I00
sg17
S'img/Somyeols/FatSomyeol_small_0.png'
p161
sg19
I32
sg20
I50
sg21
I6
sg22
I01
sg23
(lp162
g161
aS'img/Somyeols/FatSomyeol_small_1.png'
p163
asS'y'
I195
sS'x'
I281
sg26
F0.10000000000000001
sg27
I64
sg28
I00
sbag3
(g4
g5
NtRp164
(dp165
g8
I00
sg9
I10
sg10
I0
sg11
I01
sg12
I0
sg13
I00
sg14
I0
sg15
I1
sg16
I00
sg17
S'img/Somyeols/FatSomyeol_small_0.png'
p166
sg19
I32
sg20
I50
sg21
I6
sg22
I01
sg23
(lp167
g166
aS'img/Somyeols/FatSomyeol_small_1.png'
p168
asS'y'
I191
sS'x'
I282
sg26
F0.10000000000000001
sg27
I64
sg28
I00
sbag3
(g4
g5
NtRp169
(dp170
g8
I00
sg9
I10
sg10
I0
sg11
I01
sg12
I0
sg13
I00
sg14
I0
sg15
I1
sg16
I00
sg17
S'img/Somyeols/FatSomyeol_small_0.png'
p171
sg19
I32
sg20
I50
sg21
I6
sg22
I01
sg23
(lp172
g171
aS'img/Somyeols/FatSomyeol_small_1.png'
p173
asS'y'
I191
sS'x'
I293
sg26
F0.10000000000000001
sg27
I64
sg28
I00
sbaa(lp174
g3
(cGameObjects
Box
p175
g5
NtRp176
(dp177
g10
I0
sg12
I0
sg27
I32
sg19
I832
sS'y'
I288
sS'x'
I160
sbag3
(cGameObjects
Goal
p178
g5
NtRp179
(dp180
S'y'
I128
sS'x'
I832
sg27
I160
sS'img'
p181
S'img/World/goal.png'
p182
sg19
I160
sbag3
(cGameObjects
Spike
p183
g5
NtRp184
(dp185
S'y'
I272
sS'x'
I432
sg27
I16
sg181
S'img/World/spike.png'
p186
sg19
I32
sbag3
(g183
g5
NtRp187
(dp188
S'y'
I272
sS'x'
I624
sg27
I16
sg181
S'img/World/spike.png'
p189
sg19
I32
sbaa(lp190
a.