(lp1
(lp2
ccopy_reg
_reconstructor
p3
(cSomyeol
Somyeol
p4
c__builtin__
object
p5
NtRp6
(dp7
S'hasKey'
p8
I00
sS'animationCnt'
p9
I10
sS'yspeed'
p10
I0
sS'nonstopJump'
p11
I01
sS'xspeed'
p12
I0
sS'canJump'
p13
I00
sS'currentFile'
p14
I0
sS'breathFactor'
p15
I1
sS'dead'
p16
I00
sS'height'
p17
I64
sS'width'
p18
I32
sS'points'
p19
I10
sS'jumpSpeed'
p20
F10.25
sS'breathIn'
p21
I01
sS'filenames'
p22
(lp23
S'img/Somyeols/Somyeol_stand_0.png'
p24
aS'img/Somyeols/Somyeol_stand_1.png'
p25
asS'y'
I230
sS'x'
I478
sS'moveSpeed'
p26
F0.20000000000000001
sS'filename'
p27
g24
sS'inverted'
p28
I00
sbag3
(g4
g5
NtRp29
(dp30
g8
I00
sg9
I10
sg10
I0
sg11
I01
sg12
I0
sg13
I00
sg14
I0
sg15
I1
sg16
I00
sg17
I64
sg18
I32
sg19
I10
sg20
F10.25
sg21
I01
sg22
(lp31
S'img/Somyeols/Somyeol_stand_0.png'
p32
aS'img/Somyeols/Somyeol_stand_1.png'
p33
asS'y'
I215
sS'x'
I480
sg26
F0.20000000000000001
sg27
g32
sg28
I00
sbag3
(g4
g5
NtRp34
(dp35
g8
I00
sg9
I10
sg10
I0
sg11
I01
sg12
I0
sg13
I00
sg14
I0
sg15
I1
sg16
I00
sg17
I64
sg18
I32
sg19
I10
sg20
F10.25
sg21
I01
sg22
(lp36
S'img/Somyeols/Somyeol_stand_0.png'
p37
aS'img/Somyeols/Somyeol_stand_1.png'
p38
asS'y'
I222
sS'x'
I470
sg26
F0.20000000000000001
sg27
g37
sg28
I00
sbag3
(g4
g5
NtRp39
(dp40
g8
I00
sg9
I10
sg10
I0
sg11
I01
sg12
I0
sg13
I00
sg14
I0
sg15
I1
sg16
I00
sg17
I64
sg18
I32
sg19
I10
sg20
F10.25
sg21
I01
sg22
(lp41
S'img/Somyeols/Somyeol_stand_0.png'
p42
aS'img/Somyeols/Somyeol_stand_1.png'
p43
asS'y'
I225
sS'x'
I489
sg26
F0.20000000000000001
sg27
g42
sg28
I00
sbag3
(g4
g5
NtRp44
(dp45
g8
I00
sg9
I10
sg10
I0
sg11
I01
sg12
I0
sg13
I00
sg14
I0
sg15
I1
sg16
I00
sg17
I64
sg18
I32
sg19
I10
sg20
F10.25
sg21
I01
sg22
(lp46
S'img/Somyeols/Somyeol_stand_0.png'
p47
aS'img/Somyeols/Somyeol_stand_1.png'
p48
asS'y'
I225
sS'x'
I479
sg26
F0.20000000000000001
sg27
g47
sg28
I00
sbag3
(g4
g5
NtRp49
(dp50
g8
I00
sg9
I10
sg10
I0
sg11
I01
sg12
I0
sg13
I00
sg14
I0
sg15
I1
sg16
I00
sg17
I64
sg18
I32
sg19
I10
sg20
F10.25
sg21
I01
sg22
(lp51
S'img/Somyeols/Somyeol_stand_0.png'
p52
aS'img/Somyeols/Somyeol_stand_1.png'
p53
asS'y'
I224
sS'x'
I471
sg26
F0.20000000000000001
sg27
g52
sg28
I00
sbag3
(g4
g5
NtRp54
(dp55
g8
I00
sg9
I10
sg10
I0
sg11
I01
sg12
I0
sg13
I00
sg14
I0
sg15
I1
sg16
I00
sg17
I64
sg18
I32
sg19
I10
sg20
F10.25
sg21
I01
sg22
(lp56
S'img/Somyeols/Somyeol_stand_0.png'
p57
aS'img/Somyeols/Somyeol_stand_1.png'
p58
asS'y'
I214
sS'x'
I477
sg26
F0.20000000000000001
sg27
g57
sg28
I00
sbag3
(g4
g5
NtRp59
(dp60
g8
I00
sg9
I10
sg10
I0
sg11
I01
sg12
I0
sg13
I00
sg14
I0
sg15
I1
sg16
I00
sg17
I64
sg18
I32
sg19
I10
sg20
F10.25
sg21
I01
sg22
(lp61
S'img/Somyeols/Somyeol_stand_0.png'
p62
aS'img/Somyeols/Somyeol_stand_1.png'
p63
asS'y'
I214
sS'x'
I488
sg26
F0.20000000000000001
sg27
g62
sg28
I00
sbag3
(g4
g5
NtRp64
(dp65
g8
I00
sg9
I10
sg10
I0
sg11
I01
sg12
I0
sg13
I00
sg14
I0
sg15
I1
sg16
I00
sg17
I64
sg18
I32
sg19
I10
sg20
F10.25
sg21
I01
sg22
(lp66
S'img/Somyeols/Somyeol_stand_0.png'
p67
aS'img/Somyeols/Somyeol_stand_1.png'
p68
asS'y'
I223
sS'x'
I490
sg26
F0.20000000000000001
sg27
g67
sg28
I00
sbag3
(cSomyeol
InvertedSomyeol
p69
g5
NtRp70
(dp71
g8
I00
sg9
I10
sg10
I0
sg11
I01
sg12
I0
sg13
I00
sg14
I0
sg15
I1
sg16
I00
sg17
I64
sg18
I32
sg19
I15
sg20
F10.25
sg21
I01
sg22
(lp72
S'img/Somyeols/InvertedSomyeol_stand_0.png'
p73
aS'img/Somyeols/InvertedSomyeol_stand_1.png'
p74
asS'y'
I225
sS'x'
I550
sg26
F0.20000000000000001
sg27
g73
sg28
I01
sbag3
(g69
g5
NtRp75
(dp76
g8
I00
sg9
I10
sg10
I0
sg11
I01
sg12
I0
sg13
I00
sg14
I0
sg15
I1
sg16
I00
sg17
I64
sg18
I32
sg19
I15
sg20
F10.25
sg21
I01
sg22
(lp77
S'img/Somyeols/InvertedSomyeol_stand_0.png'
p78
aS'img/Somyeols/InvertedSomyeol_stand_1.png'
p79
asS'y'
I227
sS'x'
I541
sg26
F0.20000000000000001
sg27
g78
sg28
I01
sbag3
(g69
g5
NtRp80
(dp81
g8
I00
sg9
I10
sg10
I0
sg11
I01
sg12
I0
sg13
I00
sg14
I0
sg15
I1
sg16
I00
sg17
I64
sg18
I32
sg19
I15
sg20
F10.25
sg21
I01
sg22
(lp82
S'img/Somyeols/InvertedSomyeol_stand_0.png'
p83
aS'img/Somyeols/InvertedSomyeol_stand_1.png'
p84
asS'y'
I220
sS'x'
I534
sg26
F0.20000000000000001
sg27
g83
sg28
I01
sbag3
(g69
g5
NtRp85
(dp86
g8
I00
sg9
I10
sg10
I0
sg11
I01
sg12
I0
sg13
I00
sg14
I0
sg15
I1
sg16
I00
sg17
I64
sg18
I32
sg19
I15
sg20
F10.25
sg21
I01
sg22
(lp87
S'img/Somyeols/InvertedSomyeol_stand_0.png'
p88
aS'img/Somyeols/InvertedSomyeol_stand_1.png'
p89
asS'y'
I217
sS'x'
I547
sg26
F0.20000000000000001
sg27
g88
sg28
I01
sbag3
(g69
g5
NtRp90
(dp91
g8
I00
sg9
I10
sg10
I0
sg11
I01
sg12
I0
sg13
I00
sg14
I0
sg15
I1
sg16
I00
sg17
I64
sg18
I32
sg19
I15
sg20
F10.25
sg21
I01
sg22
(lp92
S'img/Somyeols/InvertedSomyeol_stand_0.png'
p93
aS'img/Somyeols/InvertedSomyeol_stand_1.png'
p94
asS'y'
I218
sS'x'
I545
sg26
F0.20000000000000001
sg27
g93
sg28
I01
sbag3
(g69
g5
NtRp95
(dp96
g8
I00
sg9
I10
sg10
I0
sg11
I01
sg12
I0
sg13
I00
sg14
I0
sg15
I1
sg16
I00
sg17
I64
sg18
I32
sg19
I15
sg20
F10.25
sg21
I01
sg22
(lp97
S'img/Somyeols/InvertedSomyeol_stand_0.png'
p98
aS'img/Somyeols/InvertedSomyeol_stand_1.png'
p99
asS'y'
I219
sS'x'
I554
sg26
F0.20000000000000001
sg27
g98
sg28
I01
sbag3
(g69
g5
NtRp100
(dp101
g8
I00
sg9
I10
sg10
I0
sg11
I01
sg12
I0
sg13
I00
sg14
I0
sg15
I1
sg16
I00
sg17
I64
sg18
I32
sg19
I15
sg20
F10.25
sg21
I01
sg22
(lp102
S'img/Somyeols/InvertedSomyeol_stand_0.png'
p103
aS'img/Somyeols/InvertedSomyeol_stand_1.png'
p104
asS'y'
I231
sS'x'
I554
sg26
F0.20000000000000001
sg27
g103
sg28
I01
sbag3
(g69
g5
NtRp105
(dp106
g8
I00
sg9
I10
sg10
I0
sg11
I01
sg12
I0
sg13
I00
sg14
I0
sg15
I1
sg16
I00
sg17
I64
sg18
I32
sg19
I15
sg20
F10.25
sg21
I01
sg22
(lp107
S'img/Somyeols/InvertedSomyeol_stand_0.png'
p108
aS'img/Somyeols/InvertedSomyeol_stand_1.png'
p109
asS'y'
I217
sS'x'
I540
sg26
F0.20000000000000001
sg27
g108
sg28
I01
sbag3
(g69
g5
NtRp110
(dp111
g8
I00
sg9
I10
sg10
I0
sg11
I01
sg12
I0
sg13
I00
sg14
I0
sg15
I1
sg16
I00
sg17
I64
sg18
I32
sg19
I15
sg20
F10.25
sg21
I01
sg22
(lp112
S'img/Somyeols/InvertedSomyeol_stand_0.png'
p113
aS'img/Somyeols/InvertedSomyeol_stand_1.png'
p114
asS'y'
I230
sS'x'
I547
sg26
F0.20000000000000001
sg27
g113
sg28
I01
sbag3
(g69
g5
NtRp115
(dp116
g8
I00
sg9
I10
sg10
I0
sg11
I01
sg12
I0
sg13
I00
sg14
I0
sg15
I1
sg16
I00
sg17
I64
sg18
I32
sg19
I15
sg20
F10.25
sg21
I01
sg22
(lp117
S'img/Somyeols/InvertedSomyeol_stand_0.png'
p118
aS'img/Somyeols/InvertedSomyeol_stand_1.png'
p119
asS'y'
I230
sS'x'
I534
sg26
F0.20000000000000001
sg27
g118
sg28
I01
sbaa(lp120
g3
(cGameObjects
Box
p121
g5
NtRp122
(dp123
g10
I0
sg12
I0
sg17
I32
sg18
I480
sS'y'
I320
sS'x'
I288
sbag3
(g121
g5
NtRp124
(dp125
g10
I0
sg12
I0
sg17
I32
sg18
I160
sS'y'
I192
sS'x'
I32
sbag3
(g121
g5
NtRp126
(dp127
g10
I0
sg12
I0
sg17
I32
sg18
I160
sS'y'
I192
sS'x'
I864
sbag3
(cGameObjects
Spike
p128
g5
NtRp129
(dp130
S'y'
I176
sS'x'
I992
sg17
I16
sS'img'
p131
S'img/World/spike.png'
p132
sg18
I32
sbag3
(g121
g5
NtRp133
(dp134
g10
I0
sg12
I0
sg17
I16
sg18
I256
sS'y'
I192
sS'x'
I1216
sbag3
(g121
g5
NtRp135
(dp136
g10
I0
sg12
I0
sg17
I32
sg18
I288
sS'y'
I96
sS'x'
I-384
sbag3
(g121
g5
NtRp137
(dp138
g10
I0
sg12
I0
sg17
I544
sg18
I32
sS'y'
I32
sS'x'
I1632
sbag3
(g121
g5
NtRp139
(dp140
g10
I0
sg12
I0
sg17
I32
sg18
I288
sS'y'
I544
sS'x'
I1376
sbag3
(cGameObjects
Goal
p141
g5
NtRp142
(dp143
S'y'
I384
sS'x'
I1472
sg17
I160
sg131
S'img/World/goal.png'
p144
sg18
I160
sbag3
(g121
g5
NtRp145
(dp146
g10
I0
sg12
I0
sg17
I32
sg18
I416
sS'y'
I192
sS'x'
I-800
sbaa(lp147
g3
(cImage
Image
p148
g5
NtRp149
(dp150
S'y'
I96
sS'x'
I1504
sg17
I128
sg18
I128
sg27
S'img/gadgets/arrow_down.png'
p151
sbaa.