(lp1
(lp2
ccopy_reg
_reconstructor
p3
(cSomyeol
EvilSomyeol
p4
c__builtin__
object
p5
NtRp6
(dp7
S'hasKey'
p8
I00
sS'animationCnt'
p9
I10
sS'yspeed'
p10
I0
sS'nonstopJump'
p11
I01
sS'xspeed'
p12
I0
sS'canJump'
p13
I00
sS'currentFile'
p14
I0
sS'breathFactor'
p15
I1
sS'dead'
p16
I00
sS'filename'
p17
S'img/Somyeols/EvilSomyeol_small_0.png'
p18
sS'width'
p19
I32
sS'points'
p20
I-100
sS'jumpSpeed'
p21
F10.25
sS'breathIn'
p22
I01
sS'filenames'
p23
(lp24
g18
aS'img/Somyeols/EvilSomyeol_small_1.png'
p25
asS'y'
I286
sS'x'
I736
sS'moveSpeed'
p26
F0.20000000000000001
sS'height'
p27
I64
sS'inverted'
p28
I00
sbag3
(g4
g5
NtRp29
(dp30
g8
I00
sg9
I10
sg10
I0
sg11
I01
sg12
I0
sg13
I00
sg14
I0
sg15
I1
sg16
I00
sg17
S'img/Somyeols/EvilSomyeol_small_0.png'
p31
sg19
I32
sg20
I-100
sg21
F10.25
sg22
I01
sg23
(lp32
g31
aS'img/Somyeols/EvilSomyeol_small_1.png'
p33
asS'y'
I286
sS'x'
I704
sg26
F0.20000000000000001
sg27
I64
sg28
I00
sbag3
(g4
g5
NtRp34
(dp35
g8
I00
sg9
I10
sg10
I0
sg11
I01
sg12
I0
sg13
I00
sg14
I0
sg15
I1
sg16
I00
sg17
S'img/Somyeols/EvilSomyeol_small_0.png'
p36
sg19
I32
sg20
I-100
sg21
F10.25
sg22
I01
sg23
(lp37
g36
aS'img/Somyeols/EvilSomyeol_small_1.png'
p38
asS'y'
I286
sS'x'
I672
sg26
F0.20000000000000001
sg27
I64
sg28
I00
sbag3
(cSomyeol
Somyeol
p39
g5
NtRp40
(dp41
g8
I00
sg9
I10
sg10
I0
sg11
I01
sg12
I0
sg13
I00
sg14
I0
sg15
I1
sg16
I00
sg17
S'img/Somyeols/Somyeol_stand_0.png'
p42
sg19
I32
sg20
I10
sg21
F10.25
sg22
I01
sg23
(lp43
g42
aS'img/Somyeols/Somyeol_stand_1.png'
p44
asS'y'
I286
sS'x'
I512
sg26
F0.20000000000000001
sg27
I64
sg28
I00
sbag3
(g39
g5
NtRp45
(dp46
g8
I00
sg9
I10
sg10
I0
sg11
I01
sg12
I0
sg13
I00
sg14
I0
sg15
I1
sg16
I00
sg17
S'img/Somyeols/Somyeol_stand_0.png'
p47
sg19
I32
sg20
I10
sg21
F10.25
sg22
I01
sg23
(lp48
g47
aS'img/Somyeols/Somyeol_stand_1.png'
p49
asS'y'
I286
sS'x'
I480
sg26
F0.20000000000000001
sg27
I64
sg28
I00
sbag3
(g39
g5
NtRp50
(dp51
g8
I00
sg9
I10
sg10
I0
sg11
I01
sg12
I0
sg13
I00
sg14
I0
sg15
I1
sg16
I00
sg17
S'img/Somyeols/Somyeol_stand_0.png'
p52
sg19
I32
sg20
I10
sg21
F10.25
sg22
I01
sg23
(lp53
g52
aS'img/Somyeols/Somyeol_stand_1.png'
p54
asS'y'
I286
sS'x'
I448
sg26
F0.20000000000000001
sg27
I64
sg28
I00
sbag3
(g39
g5
NtRp55
(dp56
g8
I00
sg9
I10
sg10
I0
sg11
I01
sg12
I0
sg13
I00
sg14
I0
sg15
I1
sg16
I00
sg17
S'img/Somyeols/Somyeol_stand_0.png'
p57
sg19
I32
sg20
I10
sg21
F10.25
sg22
I01
sg23
(lp58
g57
aS'img/Somyeols/Somyeol_stand_1.png'
p59
asS'y'
I286
sS'x'
I384
sg26
F0.20000000000000001
sg27
I64
sg28
I00
sbag3
(g39
g5
NtRp60
(dp61
g8
I00
sg9
I10
sg10
I0
sg11
I01
sg12
I0
sg13
I00
sg14
I0
sg15
I1
sg16
I00
sg17
S'img/Somyeols/Somyeol_stand_0.png'
p62
sg19
I32
sg20
I10
sg21
F10.25
sg22
I01
sg23
(lp63
g62
aS'img/Somyeols/Somyeol_stand_1.png'
p64
asS'y'
I286
sS'x'
I416
sg26
F0.20000000000000001
sg27
I64
sg28
I00
sbag3
(g39
g5
NtRp65
(dp66
g8
I00
sg9
I10
sg10
I0
sg11
I01
sg12
I0
sg13
I00
sg14
I0
sg15
I1
sg16
I00
sg17
S'img/Somyeols/Somyeol_stand_0.png'
p67
sg19
I32
sg20
I10
sg21
F10.25
sg22
I01
sg23
(lp68
g67
aS'img/Somyeols/Somyeol_stand_1.png'
p69
asS'y'
I286
sS'x'
I352
sg26
F0.20000000000000001
sg27
I64
sg28
I00
sbag3
(g39
g5
NtRp70
(dp71
g8
I00
sg9
I10
sg10
I0
sg11
I01
sg12
I0
sg13
I00
sg14
I0
sg15
I1
sg16
I00
sg17
S'img/Somyeols/Somyeol_stand_0.png'
p72
sg19
I32
sg20
I10
sg21
F10.25
sg22
I01
sg23
(lp73
g72
aS'img/Somyeols/Somyeol_stand_1.png'
p74
asS'y'
I286
sS'x'
I320
sg26
F0.20000000000000001
sg27
I64
sg28
I00
sbag3
(g39
g5
NtRp75
(dp76
g8
I00
sg9
I10
sg10
I0
sg11
I01
sg12
I0
sg13
I00
sg14
I0
sg15
I1
sg16
I00
sg17
S'img/Somyeols/Somyeol_stand_0.png'
p77
sg19
I32
sg20
I10
sg21
F10.25
sg22
I01
sg23
(lp78
g77
aS'img/Somyeols/Somyeol_stand_1.png'
p79
asS'y'
I286
sS'x'
I288
sg26
F0.20000000000000001
sg27
I64
sg28
I00
sbag3
(g39
g5
NtRp80
(dp81
g8
I00
sg9
I10
sg10
I0
sg11
I01
sg12
I0
sg13
I00
sg14
I0
sg15
I1
sg16
I00
sg17
S'img/Somyeols/Somyeol_stand_0.png'
p82
sg19
I32
sg20
I10
sg21
F10.25
sg22
I01
sg23
(lp83
g82
aS'img/Somyeols/Somyeol_stand_1.png'
p84
asS'y'
I286
sS'x'
I256
sg26
F0.20000000000000001
sg27
I64
sg28
I00
sbag3
(g39
g5
NtRp85
(dp86
g8
I00
sg9
I10
sg10
I0
sg11
I01
sg12
I0
sg13
I00
sg14
I0
sg15
I1
sg16
I00
sg17
S'img/Somyeols/Somyeol_stand_0.png'
p87
sg19
I32
sg20
I10
sg21
F10.25
sg22
I01
sg23
(lp88
g87
aS'img/Somyeols/Somyeol_stand_1.png'
p89
asS'y'
I286
sS'x'
I224
sg26
F0.20000000000000001
sg27
I64
sg28
I00
sbag3
(g39
g5
NtRp90
(dp91
g8
I00
sg9
I10
sg10
I0
sg11
I01
sg12
I0
sg13
I00
sg14
I0
sg15
I1
sg16
I00
sg17
S'img/Somyeols/Somyeol_stand_0.png'
p92
sg19
I32
sg20
I10
sg21
F10.25
sg22
I01
sg23
(lp93
g92
aS'img/Somyeols/Somyeol_stand_1.png'
p94
asS'y'
I286
sS'x'
I224
sg26
F0.20000000000000001
sg27
I64
sg28
I00
sbag3
(g39
g5
NtRp95
(dp96
g8
I00
sg9
I10
sg10
I0
sg11
I01
sg12
I0
sg13
I00
sg14
I0
sg15
I1
sg16
I00
sg17
S'img/Somyeols/Somyeol_stand_0.png'
p97
sg19
I32
sg20
I10
sg21
F10.25
sg22
I01
sg23
(lp98
g97
aS'img/Somyeols/Somyeol_stand_1.png'
p99
asS'y'
I286
sS'x'
I256
sg26
F0.20000000000000001
sg27
I64
sg28
I00
sbag3
(g39
g5
NtRp100
(dp101
g8
I00
sg9
I10
sg10
I0
sg11
I01
sg12
I0
sg13
I00
sg14
I0
sg15
I1
sg16
I00
sg17
S'img/Somyeols/Somyeol_stand_0.png'
p102
sg19
I32
sg20
I10
sg21
F10.25
sg22
I01
sg23
(lp103
g102
aS'img/Somyeols/Somyeol_stand_1.png'
p104
asS'y'
I286
sS'x'
I288
sg26
F0.20000000000000001
sg27
I64
sg28
I00
sbag3
(g39
g5
NtRp105
(dp106
g8
I00
sg9
I10
sg10
I0
sg11
I01
sg12
I0
sg13
I00
sg14
I0
sg15
I1
sg16
I00
sg17
S'img/Somyeols/Somyeol_stand_0.png'
p107
sg19
I32
sg20
I10
sg21
F10.25
sg22
I01
sg23
(lp108
g107
aS'img/Somyeols/Somyeol_stand_1.png'
p109
asS'y'
I286
sS'x'
I320
sg26
F0.20000000000000001
sg27
I64
sg28
I00
sbag3
(g39
g5
NtRp110
(dp111
g8
I00
sg9
I10
sg10
I0
sg11
I01
sg12
I0
sg13
I00
sg14
I0
sg15
I1
sg16
I00
sg17
S'img/Somyeols/Somyeol_stand_0.png'
p112
sg19
I32
sg20
I10
sg21
F10.25
sg22
I01
sg23
(lp113
g112
aS'img/Somyeols/Somyeol_stand_1.png'
p114
asS'y'
I286
sS'x'
I352
sg26
F0.20000000000000001
sg27
I64
sg28
I00
sbag3
(g39
g5
NtRp115
(dp116
g8
I00
sg9
I10
sg10
I0
sg11
I01
sg12
I0
sg13
I00
sg14
I0
sg15
I1
sg16
I00
sg17
S'img/Somyeols/Somyeol_stand_0.png'
p117
sg19
I32
sg20
I10
sg21
F10.25
sg22
I01
sg23
(lp118
g117
aS'img/Somyeols/Somyeol_stand_1.png'
p119
asS'y'
I286
sS'x'
I384
sg26
F0.20000000000000001
sg27
I64
sg28
I00
sbag3
(g39
g5
NtRp120
(dp121
g8
I00
sg9
I10
sg10
I0
sg11
I01
sg12
I0
sg13
I00
sg14
I0
sg15
I1
sg16
I00
sg17
S'img/Somyeols/Somyeol_stand_0.png'
p122
sg19
I32
sg20
I10
sg21
F10.25
sg22
I01
sg23
(lp123
g122
aS'img/Somyeols/Somyeol_stand_1.png'
p124
asS'y'
I286
sS'x'
I416
sg26
F0.20000000000000001
sg27
I64
sg28
I00
sbag3
(g39
g5
NtRp125
(dp126
g8
I00
sg9
I10
sg10
I0
sg11
I01
sg12
I0
sg13
I00
sg14
I0
sg15
I1
sg16
I00
sg17
S'img/Somyeols/Somyeol_stand_0.png'
p127
sg19
I32
sg20
I10
sg21
F10.25
sg22
I01
sg23
(lp128
g127
aS'img/Somyeols/Somyeol_stand_1.png'
p129
asS'y'
I286
sS'x'
I448
sg26
F0.20000000000000001
sg27
I64
sg28
I00
sbag3
(g39
g5
NtRp130
(dp131
g8
I00
sg9
I10
sg10
I0
sg11
I01
sg12
I0
sg13
I00
sg14
I0
sg15
I1
sg16
I00
sg17
S'img/Somyeols/Somyeol_stand_0.png'
p132
sg19
I32
sg20
I10
sg21
F10.25
sg22
I01
sg23
(lp133
g132
aS'img/Somyeols/Somyeol_stand_1.png'
p134
asS'y'
I286
sS'x'
I480
sg26
F0.20000000000000001
sg27
I64
sg28
I00
sbag3
(g39
g5
NtRp135
(dp136
g8
I00
sg9
I10
sg10
I0
sg11
I01
sg12
I0
sg13
I00
sg14
I0
sg15
I1
sg16
I00
sg17
S'img/Somyeols/Somyeol_stand_0.png'
p137
sg19
I32
sg20
I10
sg21
F10.25
sg22
I01
sg23
(lp138
g137
aS'img/Somyeols/Somyeol_stand_1.png'
p139
asS'y'
I286
sS'x'
I512
sg26
F0.20000000000000001
sg27
I64
sg28
I00
sbaa(lp140
g3
(cGameObjects
Box
p141
g5
NtRp142
(dp143
g10
I0
sg12
I0
sg27
I32
sg19
I544
sS'y'
I352
sS'x'
I224
sbag3
(g141
g5
NtRp144
(dp145
g10
I0
sg12
I0
sg27
I32
sg19
I64
sS'y'
I352
sS'x'
I832
sbag3
(g141
g5
NtRp146
(dp147
g10
I0
sg12
I0
sg27
I32
sg19
I64
sS'y'
I352
sS'x'
I960
sbag3
(g141
g5
NtRp148
(dp149
g10
I0
sg12
I0
sg27
I32
sg19
I64
sS'y'
I352
sS'x'
I1088
sbag3
(g141
g5
NtRp150
(dp151
g10
I0
sg12
I0
sg27
I32
sg19
I64
sS'y'
I352
sS'x'
I1216
sbag3
(g141
g5
NtRp152
(dp153
g10
I0
sg12
I0
sg27
I32
sg19
I192
sS'y'
I352
sS'x'
I1344
sbag3
(cGameObjects
Goal
p154
g5
NtRp155
(dp156
S'y'
I192
sS'x'
I1376
sg27
I160
sS'img'
p157
S'img/World/goal.png'
p158
sg19
I160
sbaa(lp159
g3
(cImage
Image
p160
g5
NtRp161
(dp162
S'y'
I160
sS'x'
I640
sg27
I128
sg19
I128
sg17
S'img/gadgets/death.png'
p163
sbaa.